
PingPong.elf:     file format elf32-avr

Sections:
Idx Name          Size      VMA       LMA       File off  Algn
  0 .data         000001b4  00800100  0000229e  00002332  2**0
                  CONTENTS, ALLOC, LOAD, DATA
  1 .text         0000229e  00000000  00000000  00000094  2**1
                  CONTENTS, ALLOC, LOAD, READONLY, CODE
  2 .bss          00000145  008002b4  008002b4  000024e6  2**0
                  ALLOC
  3 .comment      0000005c  00000000  00000000  000024e6  2**0
                  CONTENTS, READONLY
  4 .debug_aranges 000002a8  00000000  00000000  00002542  2**0
                  CONTENTS, READONLY, DEBUGGING
  5 .debug_info   00002dbb  00000000  00000000  000027ea  2**0
                  CONTENTS, READONLY, DEBUGGING
  6 .debug_abbrev 00001011  00000000  00000000  000055a5  2**0
                  CONTENTS, READONLY, DEBUGGING
  7 .debug_line   00000ffe  00000000  00000000  000065b6  2**0
                  CONTENTS, READONLY, DEBUGGING
  8 .debug_frame  000005b0  00000000  00000000  000075b4  2**2
                  CONTENTS, READONLY, DEBUGGING
  9 .debug_str    00000831  00000000  00000000  00007b64  2**0
                  CONTENTS, READONLY, DEBUGGING
 10 .debug_loc    000011a4  00000000  00000000  00008395  2**0
                  CONTENTS, READONLY, DEBUGGING
 11 .debug_ranges 000001d0  00000000  00000000  00009539  2**0
                  CONTENTS, READONLY, DEBUGGING

Disassembly of section .text:

00000000 <__vectors>:
       0:	0c 94 d3 01 	jmp	0x3a6	; 0x3a6 <__ctors_end>
       4:	0c 94 f0 01 	jmp	0x3e0	; 0x3e0 <__bad_interrupt>
       8:	0c 94 f0 01 	jmp	0x3e0	; 0x3e0 <__bad_interrupt>
       c:	0c 94 f0 01 	jmp	0x3e0	; 0x3e0 <__bad_interrupt>
      10:	0c 94 f0 01 	jmp	0x3e0	; 0x3e0 <__bad_interrupt>
      14:	0c 94 f0 01 	jmp	0x3e0	; 0x3e0 <__bad_interrupt>
      18:	0c 94 f0 01 	jmp	0x3e0	; 0x3e0 <__bad_interrupt>
      1c:	0c 94 f0 01 	jmp	0x3e0	; 0x3e0 <__bad_interrupt>
      20:	0c 94 f0 01 	jmp	0x3e0	; 0x3e0 <__bad_interrupt>
      24:	0c 94 f0 01 	jmp	0x3e0	; 0x3e0 <__bad_interrupt>
      28:	0c 94 f0 01 	jmp	0x3e0	; 0x3e0 <__bad_interrupt>
      2c:	0c 94 f0 01 	jmp	0x3e0	; 0x3e0 <__bad_interrupt>
      30:	0c 94 f0 01 	jmp	0x3e0	; 0x3e0 <__bad_interrupt>
      34:	0c 94 f0 01 	jmp	0x3e0	; 0x3e0 <__bad_interrupt>
      38:	0c 94 f0 01 	jmp	0x3e0	; 0x3e0 <__bad_interrupt>
      3c:	0c 94 f0 01 	jmp	0x3e0	; 0x3e0 <__bad_interrupt>
      40:	0c 94 f0 01 	jmp	0x3e0	; 0x3e0 <__bad_interrupt>
      44:	0c 94 f0 01 	jmp	0x3e0	; 0x3e0 <__bad_interrupt>
      48:	0c 94 f0 01 	jmp	0x3e0	; 0x3e0 <__bad_interrupt>
      4c:	0c 94 f0 01 	jmp	0x3e0	; 0x3e0 <__bad_interrupt>
      50:	0c 94 f0 01 	jmp	0x3e0	; 0x3e0 <__bad_interrupt>
      54:	0c 94 f0 01 	jmp	0x3e0	; 0x3e0 <__bad_interrupt>
      58:	0c 94 f0 01 	jmp	0x3e0	; 0x3e0 <__bad_interrupt>
      5c:	0c 94 f0 01 	jmp	0x3e0	; 0x3e0 <__bad_interrupt>
      60:	0c 94 f0 01 	jmp	0x3e0	; 0x3e0 <__bad_interrupt>
      64:	0c 94 f0 01 	jmp	0x3e0	; 0x3e0 <__bad_interrupt>
      68:	0c 94 f0 01 	jmp	0x3e0	; 0x3e0 <__bad_interrupt>
      6c:	0c 94 f0 01 	jmp	0x3e0	; 0x3e0 <__bad_interrupt>
      70:	d3 07       	cpc	r29, r19
      72:	e1 07       	cpc	r30, r17
      74:	03 08       	sbc	r0, r3
      76:	0c 08       	sbc	r0, r12
      78:	15 08       	sbc	r1, r5
      7a:	1e 08       	sbc	r1, r14
      7c:	22 08       	sbc	r2, r2

0000007e <__trampolines_end>:
	...
      86:	00 06       	cpc	r0, r16
      88:	5f 5f       	subi	r21, 0xFF	; 255
      8a:	06 00       	.word	0x0006	; ????
      8c:	00 00       	nop
      8e:	00 07       	cpc	r16, r16
      90:	07 00       	.word	0x0007	; ????
      92:	07 07       	cpc	r16, r23
      94:	00 00       	nop
      96:	14 7f       	andi	r17, 0xF4	; 244
      98:	7f 14       	cp	r7, r15
      9a:	7f 7f       	andi	r23, 0xFF	; 255
      9c:	14 00       	.word	0x0014	; ????
      9e:	24 2e       	mov	r2, r20
      a0:	6b 6b       	ori	r22, 0xBB	; 187
      a2:	3a 12       	cpse	r3, r26
      a4:	00 00       	nop
      a6:	46 66       	ori	r20, 0x66	; 102
      a8:	30 18       	sub	r3, r0
      aa:	0c 66       	ori	r16, 0x6C	; 108
      ac:	62 00       	.word	0x0062	; ????
      ae:	30 7a       	andi	r19, 0xA0	; 160
      b0:	4f 5d       	subi	r20, 0xDF	; 223
      b2:	37 7a       	andi	r19, 0xA7	; 167
      b4:	48 00       	.word	0x0048	; ????
      b6:	04 07       	cpc	r16, r20
      b8:	03 00       	.word	0x0003	; ????
      ba:	00 00       	nop
      bc:	00 00       	nop
      be:	00 1c       	adc	r0, r0
      c0:	3e 63       	ori	r19, 0x3E	; 62
      c2:	41 00       	.word	0x0041	; ????
      c4:	00 00       	nop
      c6:	00 41       	sbci	r16, 0x10	; 16
      c8:	63 3e       	cpi	r22, 0xE3	; 227
      ca:	1c 00       	.word	0x001c	; ????
      cc:	00 00       	nop
      ce:	08 2a       	or	r0, r24
      d0:	3e 1c       	adc	r3, r14
      d2:	1c 3e       	cpi	r17, 0xEC	; 236
      d4:	2a 08       	sbc	r2, r10
      d6:	08 08       	sbc	r0, r8
      d8:	3e 3e       	cpi	r19, 0xEE	; 238
      da:	08 08       	sbc	r0, r8
      dc:	00 00       	nop
      de:	00 a0       	ldd	r0, Z+32	; 0x20
      e0:	e0 60       	ori	r30, 0x00	; 0
      e2:	00 00       	nop
      e4:	00 00       	nop
      e6:	08 08       	sbc	r0, r8
      e8:	08 08       	sbc	r0, r8
      ea:	08 08       	sbc	r0, r8
      ec:	00 00       	nop
      ee:	00 00       	nop
      f0:	60 60       	ori	r22, 0x00	; 0
      f2:	00 00       	nop
      f4:	00 00       	nop
      f6:	60 30       	cpi	r22, 0x00	; 0
      f8:	18 0c       	add	r1, r8
      fa:	06 03       	mulsu	r16, r22
      fc:	01 00       	.word	0x0001	; ????
      fe:	3e 7f       	andi	r19, 0xFE	; 254
     100:	59 4d       	sbci	r21, 0xD9	; 217
     102:	7f 3e       	cpi	r23, 0xEF	; 239
     104:	00 00       	nop
     106:	42 42       	sbci	r20, 0x22	; 34
     108:	7f 7f       	andi	r23, 0xFF	; 255
     10a:	40 40       	sbci	r20, 0x00	; 0
     10c:	00 00       	nop
     10e:	62 73       	andi	r22, 0x32	; 50
     110:	59 49       	sbci	r21, 0x99	; 153
     112:	6f 66       	ori	r22, 0x6F	; 111
     114:	00 00       	nop
     116:	22 63       	ori	r18, 0x32	; 50
     118:	49 49       	sbci	r20, 0x99	; 153
     11a:	7f 36       	cpi	r23, 0x6F	; 111
     11c:	00 00       	nop
     11e:	18 1c       	adc	r1, r8
     120:	16 13       	cpse	r17, r22
     122:	7f 7f       	andi	r23, 0xFF	; 255
     124:	10 00       	.word	0x0010	; ????
     126:	27 67       	ori	r18, 0x77	; 119
     128:	45 45       	sbci	r20, 0x55	; 85
     12a:	7d 39       	cpi	r23, 0x9D	; 157
     12c:	00 00       	nop
     12e:	3c 7e       	andi	r19, 0xEC	; 236
     130:	4b 49       	sbci	r20, 0x9B	; 155
     132:	79 30       	cpi	r23, 0x09	; 9
     134:	00 00       	nop
     136:	03 63       	ori	r16, 0x33	; 51
     138:	71 19       	sub	r23, r1
     13a:	0f 07       	cpc	r16, r31
     13c:	00 00       	nop
     13e:	36 7f       	andi	r19, 0xF6	; 246
     140:	49 49       	sbci	r20, 0x99	; 153
     142:	7f 36       	cpi	r23, 0x6F	; 111
     144:	00 00       	nop
     146:	06 4f       	sbci	r16, 0xF6	; 246
     148:	49 69       	ori	r20, 0x99	; 153
     14a:	3f 1e       	adc	r3, r31
     14c:	00 00       	nop
     14e:	00 00       	nop
     150:	6c 6c       	ori	r22, 0xCC	; 204
     152:	00 00       	nop
     154:	00 00       	nop
     156:	00 a0       	ldd	r0, Z+32	; 0x20
     158:	ec 6c       	ori	r30, 0xCC	; 204
     15a:	00 00       	nop
     15c:	00 00       	nop
     15e:	08 1c       	adc	r0, r8
     160:	36 63       	ori	r19, 0x36	; 54
     162:	41 00       	.word	0x0041	; ????
     164:	00 00       	nop
     166:	14 14       	cp	r1, r4
     168:	14 14       	cp	r1, r4
     16a:	14 14       	cp	r1, r4
     16c:	00 00       	nop
     16e:	00 41       	sbci	r16, 0x10	; 16
     170:	63 36       	cpi	r22, 0x63	; 99
     172:	1c 08       	sbc	r1, r12
     174:	00 00       	nop
     176:	02 03       	mulsu	r16, r18
     178:	51 59       	subi	r21, 0x91	; 145
     17a:	0f 06       	cpc	r0, r31
     17c:	00 00       	nop
     17e:	3e 7f       	andi	r19, 0xFE	; 254
     180:	41 5d       	subi	r20, 0xD1	; 209
     182:	5d 1f       	adc	r21, r29
     184:	1e 00       	.word	0x001e	; ????
     186:	7c 7e       	andi	r23, 0xEC	; 236
     188:	13 13       	cpse	r17, r19
     18a:	7e 7c       	andi	r23, 0xCE	; 206
     18c:	00 00       	nop
     18e:	41 7f       	andi	r20, 0xF1	; 241
     190:	7f 49       	sbci	r23, 0x9F	; 159
     192:	49 7f       	andi	r20, 0xF9	; 249
     194:	36 00       	.word	0x0036	; ????
     196:	1c 3e       	cpi	r17, 0xEC	; 236
     198:	63 41       	sbci	r22, 0x13	; 19
     19a:	41 63       	ori	r20, 0x31	; 49
     19c:	22 00       	.word	0x0022	; ????
     19e:	41 7f       	andi	r20, 0xF1	; 241
     1a0:	7f 41       	sbci	r23, 0x1F	; 31
     1a2:	63 7f       	andi	r22, 0xF3	; 243
     1a4:	1c 00       	.word	0x001c	; ????
     1a6:	41 7f       	andi	r20, 0xF1	; 241
     1a8:	7f 49       	sbci	r23, 0x9F	; 159
     1aa:	5d 41       	sbci	r21, 0x1D	; 29
     1ac:	63 00       	.word	0x0063	; ????
     1ae:	41 7f       	andi	r20, 0xF1	; 241
     1b0:	7f 49       	sbci	r23, 0x9F	; 159
     1b2:	1d 01       	movw	r2, r26
     1b4:	03 00       	.word	0x0003	; ????
     1b6:	1c 3e       	cpi	r17, 0xEC	; 236
     1b8:	63 41       	sbci	r22, 0x13	; 19
     1ba:	51 73       	andi	r21, 0x31	; 49
     1bc:	72 00       	.word	0x0072	; ????
     1be:	7f 7f       	andi	r23, 0xFF	; 255
     1c0:	08 08       	sbc	r0, r8
     1c2:	7f 7f       	andi	r23, 0xFF	; 255
     1c4:	00 00       	nop
     1c6:	00 41       	sbci	r16, 0x10	; 16
     1c8:	7f 7f       	andi	r23, 0xFF	; 255
     1ca:	41 00       	.word	0x0041	; ????
     1cc:	00 00       	nop
     1ce:	30 70       	andi	r19, 0x00	; 0
     1d0:	40 41       	sbci	r20, 0x10	; 16
     1d2:	7f 3f       	cpi	r23, 0xFF	; 255
     1d4:	01 00       	.word	0x0001	; ????
     1d6:	41 7f       	andi	r20, 0xF1	; 241
     1d8:	7f 08       	sbc	r7, r15
     1da:	1c 77       	andi	r17, 0x7C	; 124
     1dc:	63 00       	.word	0x0063	; ????
     1de:	41 7f       	andi	r20, 0xF1	; 241
     1e0:	7f 41       	sbci	r23, 0x1F	; 31
     1e2:	40 60       	ori	r20, 0x00	; 0
     1e4:	70 00       	.word	0x0070	; ????
     1e6:	7f 7f       	andi	r23, 0xFF	; 255
     1e8:	06 0c       	add	r0, r6
     1ea:	06 7f       	andi	r16, 0xF6	; 246
     1ec:	7f 00       	.word	0x007f	; ????
     1ee:	7f 7f       	andi	r23, 0xFF	; 255
     1f0:	06 0c       	add	r0, r6
     1f2:	18 7f       	andi	r17, 0xF8	; 248
     1f4:	7f 00       	.word	0x007f	; ????
     1f6:	1c 3e       	cpi	r17, 0xEC	; 236
     1f8:	63 41       	sbci	r22, 0x13	; 19
     1fa:	63 3e       	cpi	r22, 0xE3	; 227
     1fc:	1c 00       	.word	0x001c	; ????
     1fe:	41 7f       	andi	r20, 0xF1	; 241
     200:	7f 49       	sbci	r23, 0x9F	; 159
     202:	09 0f       	add	r16, r25
     204:	06 00       	.word	0x0006	; ????
     206:	1e 3f       	cpi	r17, 0xFE	; 254
     208:	21 71       	andi	r18, 0x11	; 17
     20a:	7f 5e       	subi	r23, 0xEF	; 239
     20c:	00 00       	nop
     20e:	41 7f       	andi	r20, 0xF1	; 241
     210:	7f 19       	sub	r23, r15
     212:	39 6f       	ori	r19, 0xF9	; 249
     214:	46 00       	.word	0x0046	; ????
     216:	26 67       	ori	r18, 0x76	; 118
     218:	4d 59       	subi	r20, 0x9D	; 157
     21a:	7b 32       	cpi	r23, 0x2B	; 43
     21c:	00 00       	nop
     21e:	03 41       	sbci	r16, 0x13	; 19
     220:	7f 7f       	andi	r23, 0xFF	; 255
     222:	41 03       	mulsu	r20, r17
     224:	00 00       	nop
     226:	7f 7f       	andi	r23, 0xFF	; 255
     228:	40 40       	sbci	r20, 0x00	; 0
     22a:	7f 7f       	andi	r23, 0xFF	; 255
     22c:	00 00       	nop
     22e:	1f 3f       	cpi	r17, 0xFF	; 255
     230:	60 60       	ori	r22, 0x00	; 0
     232:	3f 1f       	adc	r19, r31
     234:	00 00       	nop
     236:	7f 7f       	andi	r23, 0xFF	; 255
     238:	30 18       	sub	r3, r0
     23a:	30 7f       	andi	r19, 0xF0	; 240
     23c:	7f 00       	.word	0x007f	; ????
     23e:	63 77       	andi	r22, 0x73	; 115
     240:	1c 08       	sbc	r1, r12
     242:	1c 77       	andi	r17, 0x7C	; 124
     244:	63 00       	.word	0x0063	; ????
     246:	07 4f       	sbci	r16, 0xF7	; 247
     248:	78 78       	andi	r23, 0x88	; 136
     24a:	4f 07       	cpc	r20, r31
     24c:	00 00       	nop
     24e:	67 73       	andi	r22, 0x37	; 55
     250:	59 4d       	sbci	r21, 0xD9	; 217
     252:	47 63       	ori	r20, 0x37	; 55
     254:	71 00       	.word	0x0071	; ????
     256:	00 7f       	andi	r16, 0xF0	; 240
     258:	7f 41       	sbci	r23, 0x1F	; 31
     25a:	41 00       	.word	0x0041	; ????
     25c:	00 00       	nop
     25e:	01 03       	mulsu	r16, r17
     260:	06 0c       	add	r0, r6
     262:	18 30       	cpi	r17, 0x08	; 8
     264:	60 00       	.word	0x0060	; ????
     266:	00 41       	sbci	r16, 0x10	; 16
     268:	41 7f       	andi	r20, 0xF1	; 241
     26a:	7f 00       	.word	0x007f	; ????
     26c:	00 00       	nop
     26e:	08 0c       	add	r0, r8
     270:	06 03       	mulsu	r16, r22
     272:	06 0c       	add	r0, r6
     274:	08 00       	.word	0x0008	; ????
     276:	80 80       	ld	r8, Z
     278:	80 80       	ld	r8, Z
     27a:	80 80       	ld	r8, Z
     27c:	80 80       	ld	r8, Z
     27e:	00 00       	nop
     280:	03 07       	cpc	r16, r19
     282:	04 00       	.word	0x0004	; ????
     284:	00 00       	nop
     286:	20 74       	andi	r18, 0x40	; 64
     288:	54 54       	subi	r21, 0x44	; 68
     28a:	3c 78       	andi	r19, 0x8C	; 140
     28c:	40 00       	.word	0x0040	; ????
     28e:	41 3f       	cpi	r20, 0xF1	; 241
     290:	7f 44       	sbci	r23, 0x4F	; 79
     292:	44 7c       	andi	r20, 0xC4	; 196
     294:	38 00       	.word	0x0038	; ????
     296:	38 7c       	andi	r19, 0xC8	; 200
     298:	44 44       	sbci	r20, 0x44	; 68
     29a:	6c 28       	or	r6, r12
     29c:	00 00       	nop
     29e:	30 78       	andi	r19, 0x80	; 128
     2a0:	48 49       	sbci	r20, 0x98	; 152
     2a2:	3f 7f       	andi	r19, 0xFF	; 255
     2a4:	40 00       	.word	0x0040	; ????
     2a6:	38 7c       	andi	r19, 0xC8	; 200
     2a8:	54 54       	subi	r21, 0x44	; 68
     2aa:	5c 18       	sub	r5, r12
     2ac:	00 00       	nop
     2ae:	48 7e       	andi	r20, 0xE8	; 232
     2b0:	7f 49       	sbci	r23, 0x9F	; 159
     2b2:	03 02       	muls	r16, r19
     2b4:	00 00       	nop
     2b6:	98 bc       	out	0x28, r9	; 40
     2b8:	a4 a4       	ldd	r10, Z+44	; 0x2c
     2ba:	f8 7c       	andi	r31, 0xC8	; 200
     2bc:	04 00       	.word	0x0004	; ????
     2be:	41 7f       	andi	r20, 0xF1	; 241
     2c0:	7f 08       	sbc	r7, r15
     2c2:	04 7c       	andi	r16, 0xC4	; 196
     2c4:	78 00       	.word	0x0078	; ????
     2c6:	00 44       	sbci	r16, 0x40	; 64
     2c8:	7d 7d       	andi	r23, 0xDD	; 221
     2ca:	40 00       	.word	0x0040	; ????
     2cc:	00 00       	nop
     2ce:	40 c4       	rjmp	.+2176   	; 0xb50 <oled_print_char>
     2d0:	84 fd       	sbrc	r24, 4
     2d2:	7d 00       	.word	0x007d	; ????
     2d4:	00 00       	nop
     2d6:	41 7f       	andi	r20, 0xF1	; 241
     2d8:	7f 10       	cpse	r7, r15
     2da:	38 6c       	ori	r19, 0xC8	; 200
     2dc:	44 00       	.word	0x0044	; ????
     2de:	00 41       	sbci	r16, 0x10	; 16
     2e0:	7f 7f       	andi	r23, 0xFF	; 255
     2e2:	40 00       	.word	0x0040	; ????
     2e4:	00 00       	nop
     2e6:	7c 7c       	andi	r23, 0xCC	; 204
     2e8:	0c 18       	sub	r0, r12
     2ea:	0c 7c       	andi	r16, 0xCC	; 204
     2ec:	78 00       	.word	0x0078	; ????
     2ee:	7c 7c       	andi	r23, 0xCC	; 204
     2f0:	04 04       	cpc	r0, r4
     2f2:	7c 78       	andi	r23, 0x8C	; 140
     2f4:	00 00       	nop
     2f6:	38 7c       	andi	r19, 0xC8	; 200
     2f8:	44 44       	sbci	r20, 0x44	; 68
     2fa:	7c 38       	cpi	r23, 0x8C	; 140
     2fc:	00 00       	nop
     2fe:	84 fc       	sbrc	r8, 4
     300:	f8 a4       	ldd	r15, Y+40	; 0x28
     302:	24 3c       	cpi	r18, 0xC4	; 196
     304:	18 00       	.word	0x0018	; ????
     306:	18 3c       	cpi	r17, 0xC8	; 200
     308:	24 a4       	ldd	r2, Z+44	; 0x2c
     30a:	f8 fc       	.word	0xfcf8	; ????
     30c:	84 00       	.word	0x0084	; ????
     30e:	44 7c       	andi	r20, 0xC4	; 196
     310:	78 44       	sbci	r23, 0x48	; 72
     312:	1c 18       	sub	r1, r12
     314:	00 00       	nop
     316:	48 5c       	subi	r20, 0xC8	; 200
     318:	54 54       	subi	r21, 0x44	; 68
     31a:	74 24       	eor	r7, r4
     31c:	00 00       	nop
     31e:	00 04       	cpc	r0, r0
     320:	3e 7f       	andi	r19, 0xFE	; 254
     322:	44 24       	eor	r4, r4
     324:	00 00       	nop
     326:	3c 7c       	andi	r19, 0xCC	; 204
     328:	40 40       	sbci	r20, 0x00	; 0
     32a:	3c 7c       	andi	r19, 0xCC	; 204
     32c:	40 00       	.word	0x0040	; ????
     32e:	1c 3c       	cpi	r17, 0xCC	; 204
     330:	60 60       	ori	r22, 0x00	; 0
     332:	3c 1c       	adc	r3, r12
     334:	00 00       	nop
     336:	3c 7c       	andi	r19, 0xCC	; 204
     338:	60 30       	cpi	r22, 0x00	; 0
     33a:	60 7c       	andi	r22, 0xC0	; 192
     33c:	3c 00       	.word	0x003c	; ????
     33e:	44 6c       	ori	r20, 0xC4	; 196
     340:	38 10       	cpse	r3, r8
     342:	38 6c       	ori	r19, 0xC8	; 200
     344:	44 00       	.word	0x0044	; ????
     346:	9c bc       	out	0x2c, r9	; 44
     348:	a0 a0       	ldd	r10, Z+32	; 0x20
     34a:	fc 7c       	andi	r31, 0xCC	; 204
     34c:	00 00       	nop
     34e:	4c 64       	ori	r20, 0x4C	; 76
     350:	74 5c       	subi	r23, 0xC4	; 196
     352:	4c 64       	ori	r20, 0x4C	; 76
     354:	00 00       	nop
     356:	08 08       	sbc	r0, r8
     358:	3e 77       	andi	r19, 0x7E	; 126
     35a:	41 41       	sbci	r20, 0x11	; 17
     35c:	00 00       	nop
     35e:	00 00       	nop
     360:	00 77       	andi	r16, 0x70	; 112
     362:	77 00       	.word	0x0077	; ????
     364:	00 00       	nop
     366:	41 41       	sbci	r20, 0x11	; 17
     368:	77 3e       	cpi	r23, 0xE7	; 231
     36a:	08 08       	sbc	r0, r8
     36c:	00 00       	nop
     36e:	02 03       	mulsu	r16, r18
     370:	01 03       	mulsu	r16, r17
     372:	02 03       	mulsu	r16, r18
     374:	01 00       	.word	0x0001	; ????
     376:	08 0c       	add	r0, r8
     378:	7e 7f       	andi	r23, 0xFE	; 254
     37a:	7e 0c       	add	r7, r14
     37c:	08 00       	.word	0x0008	; ????
     37e:	08 18       	sub	r0, r8
     380:	3f 7f       	andi	r19, 0xFF	; 255
     382:	3f 18       	sub	r3, r15
     384:	08 00       	.word	0x0008	; ????
     386:	08 1c       	adc	r0, r8
     388:	3e 7f       	andi	r19, 0xFE	; 254
     38a:	1c 1c       	adc	r1, r12
     38c:	1c 00       	.word	0x001c	; ????
     38e:	00 1c       	adc	r0, r0
     390:	1c 7f       	andi	r17, 0xFC	; 252
     392:	3e 1c       	adc	r3, r14
     394:	08 00       	.word	0x0008	; ????
     396:	00 00       	nop
     398:	70 18       	sub	r7, r0
     39a:	7d b6       	in	r7, 0x3d	; 61
     39c:	bc 3c       	cpi	r27, 0xCC	; 204
     39e:	bc b6       	in	r11, 0x3c	; 60
     3a0:	7d 18       	sub	r7, r13
     3a2:	70 00       	.word	0x0070	; ????
	...

000003a6 <__ctors_end>:
     3a6:	11 24       	eor	r1, r1
     3a8:	1f be       	out	0x3f, r1	; 63
     3aa:	cf ef       	ldi	r28, 0xFF	; 255
     3ac:	d4 e0       	ldi	r29, 0x04	; 4
     3ae:	de bf       	out	0x3e, r29	; 62
     3b0:	cd bf       	out	0x3d, r28	; 61

000003b2 <__do_copy_data>:
     3b2:	12 e0       	ldi	r17, 0x02	; 2
     3b4:	a0 e0       	ldi	r26, 0x00	; 0
     3b6:	b1 e0       	ldi	r27, 0x01	; 1
     3b8:	ee e9       	ldi	r30, 0x9E	; 158
     3ba:	f2 e2       	ldi	r31, 0x22	; 34
     3bc:	02 c0       	rjmp	.+4      	; 0x3c2 <__do_copy_data+0x10>
     3be:	05 90       	lpm	r0, Z+
     3c0:	0d 92       	st	X+, r0
     3c2:	a4 3b       	cpi	r26, 0xB4	; 180
     3c4:	b1 07       	cpc	r27, r17
     3c6:	d9 f7       	brne	.-10     	; 0x3be <__do_copy_data+0xc>

000003c8 <__do_clear_bss>:
     3c8:	23 e0       	ldi	r18, 0x03	; 3
     3ca:	a4 eb       	ldi	r26, 0xB4	; 180
     3cc:	b2 e0       	ldi	r27, 0x02	; 2
     3ce:	01 c0       	rjmp	.+2      	; 0x3d2 <.do_clear_bss_start>

000003d0 <.do_clear_bss_loop>:
     3d0:	1d 92       	st	X+, r1

000003d2 <.do_clear_bss_start>:
     3d2:	a9 3f       	cpi	r26, 0xF9	; 249
     3d4:	b2 07       	cpc	r27, r18
     3d6:	e1 f7       	brne	.-8      	; 0x3d0 <.do_clear_bss_loop>
     3d8:	0e 94 66 07 	call	0xecc	; 0xecc <main>
     3dc:	0c 94 4d 11 	jmp	0x229a	; 0x229a <_exit>

000003e0 <__bad_interrupt>:
     3e0:	0c 94 00 00 	jmp	0	; 0x0 <__vectors>

000003e4 <CAN_message_send_to_reg>:
		return 0;
	}
	return 1;
}

void CAN_message_send_to_reg(CAN_message const * const msg, uint8_t reg){
     3e4:	ff 92       	push	r15
     3e6:	0f 93       	push	r16
     3e8:	1f 93       	push	r17
     3ea:	cf 93       	push	r28
     3ec:	df 93       	push	r29
     3ee:	ec 01       	movw	r28, r24
     3f0:	f6 2e       	mov	r15, r22
	//mcp2515_bit_modify(reg, TXP_MASK, msg->priority); //Setter prio
	mcp2515_write(reg + 1, msg->id>>3); //Setter de 8 msb av id
     3f2:	88 81       	ld	r24, Y
     3f4:	99 81       	ldd	r25, Y+1	; 0x01
     3f6:	bc 01       	movw	r22, r24
     3f8:	76 95       	lsr	r23
     3fa:	67 95       	ror	r22
     3fc:	76 95       	lsr	r23
     3fe:	67 95       	ror	r22
     400:	76 95       	lsr	r23
     402:	67 95       	ror	r22
     404:	81 e0       	ldi	r24, 0x01	; 1
     406:	8f 0d       	add	r24, r15
     408:	0e 94 52 03 	call	0x6a4	; 0x6a4 <mcp2515_write>
	mcp2515_write(reg + 2, msg->id<<5);	//De 3 lsb av id
     40c:	68 81       	ld	r22, Y
     40e:	62 95       	swap	r22
     410:	66 0f       	add	r22, r22
     412:	60 7e       	andi	r22, 0xE0	; 224
     414:	82 e0       	ldi	r24, 0x02	; 2
     416:	8f 0d       	add	r24, r15
     418:	0e 94 52 03 	call	0x6a4	; 0x6a4 <mcp2515_write>
	mcp2515_write(reg + 5, msg->length);	//Data length. Kan sette RTR ved å | med 0b01000000
     41c:	6a 81       	ldd	r22, Y+2	; 0x02
     41e:	85 e0       	ldi	r24, 0x05	; 5
     420:	8f 0d       	add	r24, r15
     422:	0e 94 52 03 	call	0x6a4	; 0x6a4 <mcp2515_write>
	
	for(uint8_t i = 0; i<msg->length; ++i){
     426:	8a 81       	ldd	r24, Y+2	; 0x02
     428:	88 23       	and	r24, r24
     42a:	79 f0       	breq	.+30     	; 0x44a <CAN_message_send_to_reg+0x66>
     42c:	10 e0       	ldi	r17, 0x00	; 0
		mcp2515_write(reg + i+6, msg->data[i]);
     42e:	06 e0       	ldi	r16, 0x06	; 6
     430:	0f 0d       	add	r16, r15
     432:	fe 01       	movw	r30, r28
     434:	e1 0f       	add	r30, r17
     436:	f1 1d       	adc	r31, r1
     438:	63 81       	ldd	r22, Z+3	; 0x03
     43a:	80 2f       	mov	r24, r16
     43c:	81 0f       	add	r24, r17
     43e:	0e 94 52 03 	call	0x6a4	; 0x6a4 <mcp2515_write>
	//mcp2515_bit_modify(reg, TXP_MASK, msg->priority); //Setter prio
	mcp2515_write(reg + 1, msg->id>>3); //Setter de 8 msb av id
	mcp2515_write(reg + 2, msg->id<<5);	//De 3 lsb av id
	mcp2515_write(reg + 5, msg->length);	//Data length. Kan sette RTR ved å | med 0b01000000
	
	for(uint8_t i = 0; i<msg->length; ++i){
     442:	1f 5f       	subi	r17, 0xFF	; 255
     444:	8a 81       	ldd	r24, Y+2	; 0x02
     446:	18 17       	cp	r17, r24
     448:	a0 f3       	brcs	.-24     	; 0x432 <CAN_message_send_to_reg+0x4e>
		mcp2515_write(reg + i+6, msg->data[i]);
	}
	if(reg == MCP_TXB0CTRL){
     44a:	80 e3       	ldi	r24, 0x30	; 48
     44c:	f8 12       	cpse	r15, r24
     44e:	04 c0       	rjmp	.+8      	; 0x458 <CAN_message_send_to_reg+0x74>
		mcp2515_request_to_send(MCP_RTS_TX0);
     450:	81 e8       	ldi	r24, 0x81	; 129
     452:	0e 94 6d 03 	call	0x6da	; 0x6da <mcp2515_request_to_send>
     456:	0d c0       	rjmp	.+26     	; 0x472 <CAN_message_send_to_reg+0x8e>
	}
	else if(reg == MCP_TXB1CTRL){
     458:	80 e4       	ldi	r24, 0x40	; 64
     45a:	f8 12       	cpse	r15, r24
     45c:	04 c0       	rjmp	.+8      	; 0x466 <CAN_message_send_to_reg+0x82>
		mcp2515_request_to_send(MCP_RTS_TX1);
     45e:	82 e8       	ldi	r24, 0x82	; 130
     460:	0e 94 6d 03 	call	0x6da	; 0x6da <mcp2515_request_to_send>
     464:	06 c0       	rjmp	.+12     	; 0x472 <CAN_message_send_to_reg+0x8e>
	}
	else if(reg == MCP_TXB2CTRL){
     466:	80 e5       	ldi	r24, 0x50	; 80
     468:	f8 12       	cpse	r15, r24
     46a:	03 c0       	rjmp	.+6      	; 0x472 <CAN_message_send_to_reg+0x8e>
		mcp2515_request_to_send(MCP_RTS_TX2);
     46c:	84 e8       	ldi	r24, 0x84	; 132
     46e:	0e 94 6d 03 	call	0x6da	; 0x6da <mcp2515_request_to_send>
	}
}
     472:	df 91       	pop	r29
     474:	cf 91       	pop	r28
     476:	1f 91       	pop	r17
     478:	0f 91       	pop	r16
     47a:	ff 90       	pop	r15
     47c:	08 95       	ret

0000047e <CAN_message_send>:
	mcp2515_bit_modify(MCP_CANCTRL, MODE_MASK, MODE_NORMAL);
}


/*Returnerer 1 om meldignen ble sendt, ellers 0*/
uint8_t CAN_message_send(CAN_message const * const msg){
     47e:	cf 93       	push	r28
     480:	df 93       	push	r29
     482:	ec 01       	movw	r28, r24
	//reg0, 0x30: status bit nr 2 
	//reg1, 0x40: status bit nr 4 
	//reg2, 0x50: status bit nr 6
	
	
	uint8_t status = mcp2515_read_status();
     484:	0e 94 64 03 	call	0x6c8	; 0x6c8 <mcp2515_read_status>
	if(status | (1 << 2)){
		CAN_message_send_to_reg(msg, MCP_TXB0CTRL);
     488:	60 e3       	ldi	r22, 0x30	; 48
     48a:	ce 01       	movw	r24, r28
     48c:	0e 94 f2 01 	call	0x3e4	; 0x3e4 <CAN_message_send_to_reg>
	}
	else{
		return 0;
	}
	return 1;
}
     490:	81 e0       	ldi	r24, 0x01	; 1
     492:	df 91       	pop	r29
     494:	cf 91       	pop	r28
     496:	08 95       	ret

00000498 <CAN_data_receive>:
	}
	return false;
}
*/

bool CAN_data_receive(CAN_message* msg, uint8_t reg){
     498:	ef 92       	push	r14
     49a:	ff 92       	push	r15
     49c:	0f 93       	push	r16
     49e:	1f 93       	push	r17
     4a0:	cf 93       	push	r28
     4a2:	df 93       	push	r29
     4a4:	ec 01       	movw	r28, r24
     4a6:	e6 2e       	mov	r14, r22
	
	memset(msg, 0, sizeof(CAN_message));
     4a8:	8b e0       	ldi	r24, 0x0B	; 11
     4aa:	fe 01       	movw	r30, r28
     4ac:	11 92       	st	Z+, r1
     4ae:	8a 95       	dec	r24
     4b0:	e9 f7       	brne	.-6      	; 0x4ac <CAN_data_receive+0x14>
	
	uint8_t retVal = false;
	//reg0, 0x60: bit nr 0
	//reg1, 0x70: bit nr 1
	uint8_t status = mcp2515_read_status();
     4b2:	0e 94 64 03 	call	0x6c8	; 0x6c8 <mcp2515_read_status>
	if(status | (1 << ((reg>>4)-6))){
     4b6:	2e 2d       	mov	r18, r14
     4b8:	22 95       	swap	r18
     4ba:	2f 70       	andi	r18, 0x0F	; 15
     4bc:	26 50       	subi	r18, 0x06	; 6
     4be:	41 e0       	ldi	r20, 0x01	; 1
     4c0:	50 e0       	ldi	r21, 0x00	; 0
     4c2:	ba 01       	movw	r22, r20
     4c4:	02 c0       	rjmp	.+4      	; 0x4ca <CAN_data_receive+0x32>
     4c6:	66 0f       	add	r22, r22
     4c8:	77 1f       	adc	r23, r23
     4ca:	2a 95       	dec	r18
     4cc:	e2 f7       	brpl	.-8      	; 0x4c6 <CAN_data_receive+0x2e>
     4ce:	9b 01       	movw	r18, r22
     4d0:	28 2b       	or	r18, r24
     4d2:	23 2b       	or	r18, r19
     4d4:	89 f1       	breq	.+98     	; 0x538 <__stack+0x39>
		msg->id = (mcp2515_read(reg+1) << 3); //8 msb
     4d6:	81 e0       	ldi	r24, 0x01	; 1
     4d8:	8e 0d       	add	r24, r14
     4da:	0e 94 43 03 	call	0x686	; 0x686 <mcp2515_read>
     4de:	78 e0       	ldi	r23, 0x08	; 8
     4e0:	87 9f       	mul	r24, r23
     4e2:	80 01       	movw	r16, r0
     4e4:	11 24       	eor	r1, r1
     4e6:	19 83       	std	Y+1, r17	; 0x01
     4e8:	08 83       	st	Y, r16
		msg->id |= (mcp2515_read(reg+2) >> 5); //3 lsb
     4ea:	82 e0       	ldi	r24, 0x02	; 2
     4ec:	8e 0d       	add	r24, r14
     4ee:	0e 94 43 03 	call	0x686	; 0x686 <mcp2515_read>
     4f2:	82 95       	swap	r24
     4f4:	86 95       	lsr	r24
     4f6:	87 70       	andi	r24, 0x07	; 7
     4f8:	08 2b       	or	r16, r24
     4fa:	19 83       	std	Y+1, r17	; 0x01
     4fc:	08 83       	st	Y, r16
		msg->length = mcp2515_read(reg+5) & 0x0f;
     4fe:	85 e0       	ldi	r24, 0x05	; 5
     500:	8e 0d       	add	r24, r14
     502:	0e 94 43 03 	call	0x686	; 0x686 <mcp2515_read>
     506:	8f 70       	andi	r24, 0x0F	; 15
     508:	8a 83       	std	Y+2, r24	; 0x02
		
		for(uint8_t i=0; i<msg->length && i<8; ++i){
     50a:	88 23       	and	r24, r24
     50c:	b9 f0       	breq	.+46     	; 0x53c <__stack+0x3d>
     50e:	8e 01       	movw	r16, r28
     510:	0d 5f       	subi	r16, 0xFD	; 253
     512:	1f 4f       	sbci	r17, 0xFF	; 255
     514:	f1 2c       	mov	r15, r1
			msg->data[i] = mcp2515_read(reg+6+i);
     516:	86 e0       	ldi	r24, 0x06	; 6
     518:	e8 0e       	add	r14, r24
     51a:	8e 2d       	mov	r24, r14
     51c:	8f 0d       	add	r24, r15
     51e:	0e 94 43 03 	call	0x686	; 0x686 <mcp2515_read>
     522:	f8 01       	movw	r30, r16
     524:	81 93       	st	Z+, r24
     526:	8f 01       	movw	r16, r30
	if(status | (1 << ((reg>>4)-6))){
		msg->id = (mcp2515_read(reg+1) << 3); //8 msb
		msg->id |= (mcp2515_read(reg+2) >> 5); //3 lsb
		msg->length = mcp2515_read(reg+5) & 0x0f;
		
		for(uint8_t i=0; i<msg->length && i<8; ++i){
     528:	f3 94       	inc	r15
     52a:	8a 81       	ldd	r24, Y+2	; 0x02
     52c:	f8 16       	cp	r15, r24
     52e:	40 f4       	brcc	.+16     	; 0x540 <__stack+0x41>
     530:	f8 e0       	ldi	r31, 0x08	; 8
     532:	ff 12       	cpse	r15, r31
     534:	f2 cf       	rjmp	.-28     	; 0x51a <__stack+0x1b>
     536:	06 c0       	rjmp	.+12     	; 0x544 <__stack+0x45>

bool CAN_data_receive(CAN_message* msg, uint8_t reg){
	
	memset(msg, 0, sizeof(CAN_message));
	
	uint8_t retVal = false;
     538:	80 e0       	ldi	r24, 0x00	; 0
     53a:	05 c0       	rjmp	.+10     	; 0x546 <__stack+0x47>
		msg->length = mcp2515_read(reg+5) & 0x0f;
		
		for(uint8_t i=0; i<msg->length && i<8; ++i){
			msg->data[i] = mcp2515_read(reg+6+i);
		}
		retVal = true;
     53c:	81 e0       	ldi	r24, 0x01	; 1
     53e:	03 c0       	rjmp	.+6      	; 0x546 <__stack+0x47>
     540:	81 e0       	ldi	r24, 0x01	; 1
     542:	01 c0       	rjmp	.+2      	; 0x546 <__stack+0x47>
     544:	81 e0       	ldi	r24, 0x01	; 1
	}	
	return retVal;
}
     546:	df 91       	pop	r29
     548:	cf 91       	pop	r28
     54a:	1f 91       	pop	r17
     54c:	0f 91       	pop	r16
     54e:	ff 90       	pop	r15
     550:	ef 90       	pop	r14
     552:	08 95       	ret

00000554 <CAN_int>:

interrupt CAN_int(){
	if(!read_bit(interrupt_PIN, interrupt_bit)){
     554:	83 99       	sbic	0x10, 3	; 16
     556:	06 c0       	rjmp	.+12     	; 0x564 <CAN_int+0x10>
		//printf("Interupt active");
		interrupt retval = (interrupt)((mcp2515_read(MCP_CANSTAT)&MCP_CANSTAT_ICOD_MASK) >> 1);
     558:	8e e0       	ldi	r24, 0x0E	; 14
     55a:	0e 94 43 03 	call	0x686	; 0x686 <mcp2515_read>
     55e:	8e 70       	andi	r24, 0x0E	; 14
		//printf("%u",retval);
		return retval;
     560:	86 95       	lsr	r24
     562:	08 95       	ret
	}
	return NOINT;
     564:	80 e0       	ldi	r24, 0x00	; 0
}
     566:	08 95       	ret

00000568 <CAN_all_int_clear>:
		mcp2515_bit_modify(MCP_CANINTF, interruptToMask(CAN_interrupt), 0x00);	
	}
}

void CAN_all_int_clear(){
	mcp2515_write(MCP_CANINTF, 0x00);
     568:	60 e0       	ldi	r22, 0x00	; 0
     56a:	8c e2       	ldi	r24, 0x2C	; 44
     56c:	0e 94 52 03 	call	0x6a4	; 0x6a4 <mcp2515_write>
     570:	08 95       	ret

00000572 <CAN_init>:

#include <stdio.h>
#include <string.h>

void CAN_init(){
	clear_bit(interrupt_DDR, interrupt_bit); //Input on the interrupt pin
     572:	8b 98       	cbi	0x11, 3	; 17
	
	uint8_t value;
	SPI_init(); // Initialize SPI
     574:	0e 94 90 03 	call	0x720	; 0x720 <SPI_init>
	mcp2515_reset(); // Send reset-command
     578:	0e 94 8a 03 	call	0x714	; 0x714 <mcp2515_reset>
	
	// Self-test
	value = mcp2515_read(MCP_CANSTAT);
     57c:	8e e0       	ldi	r24, 0x0E	; 14
     57e:	0e 94 43 03 	call	0x686	; 0x686 <mcp2515_read>
	if ((value & MODE_MASK) != MODE_CONFIG) {
     582:	80 7e       	andi	r24, 0xE0	; 224
     584:	80 38       	cpi	r24, 0x80	; 128
     586:	21 f0       	breq	.+8      	; 0x590 <CAN_init+0x1e>
		puts("MCP2515 is NOT in configuration mode after reset!\n");
     588:	8a e0       	ldi	r24, 0x0A	; 10
     58a:	91 e0       	ldi	r25, 0x01	; 1
     58c:	0e 94 b1 0c 	call	0x1962	; 0x1962 <puts>
	}
		
	//Sets up RXBOCTRL
		//RXM = 01, aktiv filter, kun kort id. 
	mcp2515_bit_modify(MCP_RXB0CTRL, MCP_RXB0RXM_MASK, 1 << 5);
     590:	40 e2       	ldi	r20, 0x20	; 32
     592:	60 e6       	ldi	r22, 0x60	; 96
     594:	80 e6       	ldi	r24, 0x60	; 96
     596:	0e 94 72 03 	call	0x6e4	; 0x6e4 <mcp2515_bit_modify>
		//BUKT: 1 -> ting går til RXB1 når denne er full
	mcp2515_bit_modify(MCP_RXB0CTRL, MCP_RXB0BUKT_MASK, 1 << 2);
     59a:	44 e0       	ldi	r20, 0x04	; 4
     59c:	64 e0       	ldi	r22, 0x04	; 4
     59e:	80 e6       	ldi	r24, 0x60	; 96
     5a0:	0e 94 72 03 	call	0x6e4	; 0x6e4 <mcp2515_bit_modify>
	//RXB1CTRL
		//RXM = 01, aktiv filter, kun kort id. 
	mcp2515_bit_modify(MCP_RXB1CTRL, MCP_RXB1RXM_MASK, 1 << 5);
     5a4:	40 e2       	ldi	r20, 0x20	; 32
     5a6:	60 e6       	ldi	r22, 0x60	; 96
     5a8:	80 e7       	ldi	r24, 0x70	; 112
     5aa:	0e 94 72 03 	call	0x6e4	; 0x6e4 <mcp2515_bit_modify>
	//TX2IE = 0 Transmit 2 empty interrupt
	//TX1IE = 0 Transmit 1 empty interrupt
	//TX0IE = 0 Transmit 0 empty interrupt
	//RX1IE = 1 Interrupt når data på RX1
	//RX0IE = 1 -||- RX2
	mcp2515_write(MCP_CANINTE, 0b00100011);
     5ae:	63 e2       	ldi	r22, 0x23	; 35
     5b0:	8b e2       	ldi	r24, 0x2B	; 43
     5b2:	0e 94 52 03 	call	0x6a4	; 0x6a4 <mcp2515_write>
	
	//Filtere:
	//Masken til RX0
	mcp2515_write(MCP_RXM0SIDH, NODE1_CANID_H_mask >> 3);
     5b6:	60 ec       	ldi	r22, 0xC0	; 192
     5b8:	80 e2       	ldi	r24, 0x20	; 32
     5ba:	0e 94 52 03 	call	0x6a4	; 0x6a4 <mcp2515_write>
	mcp2515_bit_modify(MCP_RXM0SIDL, 0b11100000U, NODE1_CANID_H_mask << 5);
     5be:	40 e2       	ldi	r20, 0x20	; 32
     5c0:	60 ee       	ldi	r22, 0xE0	; 224
     5c2:	81 e2       	ldi	r24, 0x21	; 33
     5c4:	0e 94 72 03 	call	0x6e4	; 0x6e4 <mcp2515_bit_modify>
	
	//Masken til RX1
	mcp2515_write(MCP_RXM1SIDH, NODE1_CANID_L_mask >> 3);
     5c8:	60 ec       	ldi	r22, 0xC0	; 192
     5ca:	84 e2       	ldi	r24, 0x24	; 36
     5cc:	0e 94 52 03 	call	0x6a4	; 0x6a4 <mcp2515_write>
	mcp2515_bit_modify(MCP_RXM1SIDL, 0b11100000U, NODE1_CANID_L_mask << 5);
     5d0:	40 e6       	ldi	r20, 0x60	; 96
     5d2:	60 ee       	ldi	r22, 0xE0	; 224
     5d4:	85 e2       	ldi	r24, 0x25	; 37
     5d6:	0e 94 72 03 	call	0x6e4	; 0x6e4 <mcp2515_bit_modify>
	
	//Filter 0 (RX0, går til RX1 om  RX0 er full)
	mcp2515_write(MCP_RXF0SIDH, NODE1_CANID_HIGHPRIO_0 >> 3);
     5da:	60 e4       	ldi	r22, 0x40	; 64
     5dc:	80 e0       	ldi	r24, 0x00	; 0
     5de:	0e 94 52 03 	call	0x6a4	; 0x6a4 <mcp2515_write>
	mcp2515_bit_modify(MCP_RXF0SIDL, 0b11100000U, NODE1_CANID_HIGHPRIO_0 << 5);
     5e2:	40 e0       	ldi	r20, 0x00	; 0
     5e4:	60 ee       	ldi	r22, 0xE0	; 224
     5e6:	81 e0       	ldi	r24, 0x01	; 1
     5e8:	0e 94 72 03 	call	0x6e4	; 0x6e4 <mcp2515_bit_modify>
	
	//Filter 1 (RX0, går til RX1 om  RX0 er full)
	mcp2515_write(MCP_RXF1SIDH, NODE1_CANID_HIGHPRIO_1 >> 3);
     5ec:	60 e4       	ldi	r22, 0x40	; 64
     5ee:	84 e0       	ldi	r24, 0x04	; 4
     5f0:	0e 94 52 03 	call	0x6a4	; 0x6a4 <mcp2515_write>
	mcp2515_bit_modify(MCP_RXF1SIDL, 0b11100000U, NODE1_CANID_HIGHPRIO_1 << 5);
     5f4:	40 e2       	ldi	r20, 0x20	; 32
     5f6:	60 ee       	ldi	r22, 0xE0	; 224
     5f8:	85 e0       	ldi	r24, 0x05	; 5
     5fa:	0e 94 72 03 	call	0x6e4	; 0x6e4 <mcp2515_bit_modify>
	
	//Filter 2 (RX1)
	mcp2515_write(MCP_RXF2SIDH, NODE1_CANID_0 >> 3);
     5fe:	60 ec       	ldi	r22, 0xC0	; 192
     600:	88 e0       	ldi	r24, 0x08	; 8
     602:	0e 94 52 03 	call	0x6a4	; 0x6a4 <mcp2515_write>
	mcp2515_bit_modify(MCP_RXF2SIDL, 0b11100000U, NODE1_CANID_0 << 5);
     606:	40 e0       	ldi	r20, 0x00	; 0
     608:	60 ee       	ldi	r22, 0xE0	; 224
     60a:	89 e0       	ldi	r24, 0x09	; 9
     60c:	0e 94 72 03 	call	0x6e4	; 0x6e4 <mcp2515_bit_modify>
	
	//Filter 3 (RX1)
	mcp2515_write(MCP_RXF3SIDH, NODE1_CANID_1 >> 3);
     610:	60 ec       	ldi	r22, 0xC0	; 192
     612:	80 e1       	ldi	r24, 0x10	; 16
     614:	0e 94 52 03 	call	0x6a4	; 0x6a4 <mcp2515_write>
	mcp2515_bit_modify(MCP_RXF3SIDL, 0b11100000U, NODE1_CANID_1 << 5);
     618:	40 e2       	ldi	r20, 0x20	; 32
     61a:	60 ee       	ldi	r22, 0xE0	; 224
     61c:	81 e1       	ldi	r24, 0x11	; 17
     61e:	0e 94 72 03 	call	0x6e4	; 0x6e4 <mcp2515_bit_modify>
	
	//Filter 4 (RX1)
	mcp2515_write(MCP_RXF4SIDH, NODE1_CANID_2 >> 3);
     622:	60 ec       	ldi	r22, 0xC0	; 192
     624:	84 e1       	ldi	r24, 0x14	; 20
     626:	0e 94 52 03 	call	0x6a4	; 0x6a4 <mcp2515_write>
	mcp2515_bit_modify(MCP_RXF4SIDL, 0b11100000U, NODE1_CANID_2 << 5);
     62a:	40 e4       	ldi	r20, 0x40	; 64
     62c:	60 ee       	ldi	r22, 0xE0	; 224
     62e:	85 e1       	ldi	r24, 0x15	; 21
     630:	0e 94 72 03 	call	0x6e4	; 0x6e4 <mcp2515_bit_modify>
	
	//Filter 5 (RX1)
	mcp2515_write(MCP_RXF5SIDH, NODE1_CANID_3 >> 3);
     634:	60 ec       	ldi	r22, 0xC0	; 192
     636:	88 e1       	ldi	r24, 0x18	; 24
     638:	0e 94 52 03 	call	0x6a4	; 0x6a4 <mcp2515_write>
	mcp2515_bit_modify(MCP_RXF5SIDL, 0b11100000U, NODE1_CANID_3 << 5);
     63c:	40 e6       	ldi	r20, 0x60	; 96
     63e:	60 ee       	ldi	r22, 0xE0	; 224
     640:	89 e1       	ldi	r24, 0x19	; 25
     642:	0e 94 72 03 	call	0x6e4	; 0x6e4 <mcp2515_bit_modify>
	
	CAN_all_int_clear();
     646:	0e 94 b4 02 	call	0x568	; 0x568 <CAN_all_int_clear>
	mcp2515_bit_modify(MCP_CANCTRL, MODE_MASK, MODE_NORMAL);
     64a:	40 e0       	ldi	r20, 0x00	; 0
     64c:	60 ee       	ldi	r22, 0xE0	; 224
     64e:	8f e0       	ldi	r24, 0x0F	; 15
     650:	0e 94 72 03 	call	0x6e4	; 0x6e4 <mcp2515_bit_modify>
     654:	08 95       	ret

00000656 <interruptToMask>:
void CAN_all_int_clear(){
	mcp2515_write(MCP_CANINTF, 0x00);
}

uint8_t interruptToMask(interrupt CAN_interrrupt){
	switch(CAN_interrrupt){
     656:	86 30       	cpi	r24, 0x06	; 6
     658:	31 f0       	breq	.+12     	; 0x666 <interruptToMask+0x10>
     65a:	87 30       	cpi	r24, 0x07	; 7
     65c:	31 f0       	breq	.+12     	; 0x66a <interruptToMask+0x14>
     65e:	81 30       	cpi	r24, 0x01	; 1
     660:	31 f0       	breq	.+12     	; 0x66e <interruptToMask+0x18>
		case NOINT:
			return 0x00;
     662:	80 e0       	ldi	r24, 0x00	; 0
     664:	08 95       	ret
		case ERR:
			return 0b00100000;
		case RX0:
			return 0b00000001;
     666:	81 e0       	ldi	r24, 0x01	; 1
     668:	08 95       	ret
		case RX1:
			return 0b00000010;
     66a:	82 e0       	ldi	r24, 0x02	; 2
     66c:	08 95       	ret
uint8_t interruptToMask(interrupt CAN_interrrupt){
	switch(CAN_interrrupt){
		case NOINT:
			return 0x00;
		case ERR:
			return 0b00100000;
     66e:	80 e2       	ldi	r24, 0x20	; 32
		case RX1:
			return 0b00000010;
		default:
			return 0x00;
	}
     670:	08 95       	ret

00000672 <CAN_int_clear>:
	}
	return NOINT;
}

void CAN_int_clear(interrupt CAN_interrupt){
	if(CAN_interrupt != NOINT){
     672:	88 23       	and	r24, r24
     674:	39 f0       	breq	.+14     	; 0x684 <CAN_int_clear+0x12>
		mcp2515_bit_modify(MCP_CANINTF, interruptToMask(CAN_interrupt), 0x00);	
     676:	0e 94 2b 03 	call	0x656	; 0x656 <interruptToMask>
     67a:	40 e0       	ldi	r20, 0x00	; 0
     67c:	68 2f       	mov	r22, r24
     67e:	8c e2       	ldi	r24, 0x2C	; 44
     680:	0e 94 72 03 	call	0x6e4	; 0x6e4 <mcp2515_bit_modify>
     684:	08 95       	ret

00000686 <mcp2515_read>:
#include "mcp2515.h"
#include "spi.h"
#include "MCP2515_register.h"


uint8_t mcp2515_read(uint8_t addr){
     686:	cf 93       	push	r28
     688:	c8 2f       	mov	r28, r24
	clear_bit(slave_cs_reg, slave_cs_bit);	//Activates CAN controller
     68a:	c4 98       	cbi	0x18, 4	; 24
	SPI_communicate(MCP_READ);				//Sends instruction
     68c:	83 e0       	ldi	r24, 0x03	; 3
     68e:	0e 94 98 03 	call	0x730	; 0x730 <SPI_communicate>
	SPI_communicate(addr);					//Sends the address
     692:	8c 2f       	mov	r24, r28
     694:	0e 94 98 03 	call	0x730	; 0x730 <SPI_communicate>
	uint8_t val = SPI_communicate(0x00);	//Receives data
     698:	80 e0       	ldi	r24, 0x00	; 0
     69a:	0e 94 98 03 	call	0x730	; 0x730 <SPI_communicate>
	set_bit(slave_cs_reg, slave_cs_bit);	//Deactivates.
     69e:	c4 9a       	sbi	0x18, 4	; 24
	return val;
}
     6a0:	cf 91       	pop	r28
     6a2:	08 95       	ret

000006a4 <mcp2515_write>:

void mcp2515_write(uint8_t addr, uint8_t data){
     6a4:	cf 93       	push	r28
     6a6:	df 93       	push	r29
     6a8:	d8 2f       	mov	r29, r24
     6aa:	c6 2f       	mov	r28, r22
	clear_bit(slave_cs_reg, slave_cs_bit);	//Activates CAN controller
     6ac:	c4 98       	cbi	0x18, 4	; 24
	SPI_communicate(MCP_WRITE);				//Sends instruction
     6ae:	82 e0       	ldi	r24, 0x02	; 2
     6b0:	0e 94 98 03 	call	0x730	; 0x730 <SPI_communicate>
	SPI_communicate(addr);					//Sends the address
     6b4:	8d 2f       	mov	r24, r29
     6b6:	0e 94 98 03 	call	0x730	; 0x730 <SPI_communicate>
	SPI_communicate(data);					//Sends data
     6ba:	8c 2f       	mov	r24, r28
     6bc:	0e 94 98 03 	call	0x730	; 0x730 <SPI_communicate>
	set_bit(slave_cs_reg, slave_cs_bit);	//Deactivates.
     6c0:	c4 9a       	sbi	0x18, 4	; 24
}
     6c2:	df 91       	pop	r29
     6c4:	cf 91       	pop	r28
     6c6:	08 95       	ret

000006c8 <mcp2515_read_status>:

uint8_t mcp2515_read_status(){
	clear_bit(slave_cs_reg, slave_cs_bit);	//Activates CAN controller
     6c8:	c4 98       	cbi	0x18, 4	; 24
	SPI_communicate(MCP_READ_STATUS);		//Sends instruction
     6ca:	80 ea       	ldi	r24, 0xA0	; 160
     6cc:	0e 94 98 03 	call	0x730	; 0x730 <SPI_communicate>
	uint8_t val = SPI_communicate(0x00);
     6d0:	80 e0       	ldi	r24, 0x00	; 0
     6d2:	0e 94 98 03 	call	0x730	; 0x730 <SPI_communicate>
	set_bit(slave_cs_reg, slave_cs_bit);	//Deactivates
     6d6:	c4 9a       	sbi	0x18, 4	; 24
	return val;
}
     6d8:	08 95       	ret

000006da <mcp2515_request_to_send>:


void mcp2515_request_to_send(uint8_t reg){
	clear_bit(slave_cs_reg, slave_cs_bit);	//Activates CAN controller
     6da:	c4 98       	cbi	0x18, 4	; 24
	SPI_communicate(reg);					//Sends instruction
     6dc:	0e 94 98 03 	call	0x730	; 0x730 <SPI_communicate>
	set_bit(slave_cs_reg, slave_cs_bit);	//Deactivates
     6e0:	c4 9a       	sbi	0x18, 4	; 24
     6e2:	08 95       	ret

000006e4 <mcp2515_bit_modify>:
}

void mcp2515_bit_modify(uint8_t addr, uint8_t mask, uint8_t data){
     6e4:	1f 93       	push	r17
     6e6:	cf 93       	push	r28
     6e8:	df 93       	push	r29
     6ea:	18 2f       	mov	r17, r24
     6ec:	d6 2f       	mov	r29, r22
     6ee:	c4 2f       	mov	r28, r20
	clear_bit(slave_cs_reg, slave_cs_bit);	//Activates CAN controller
     6f0:	c4 98       	cbi	0x18, 4	; 24
	SPI_communicate(MCP_BITMOD);			//Sends instruction
     6f2:	85 e0       	ldi	r24, 0x05	; 5
     6f4:	0e 94 98 03 	call	0x730	; 0x730 <SPI_communicate>
	SPI_communicate(addr);
     6f8:	81 2f       	mov	r24, r17
     6fa:	0e 94 98 03 	call	0x730	; 0x730 <SPI_communicate>
	SPI_communicate(mask);
     6fe:	8d 2f       	mov	r24, r29
     700:	0e 94 98 03 	call	0x730	; 0x730 <SPI_communicate>
	SPI_communicate(data);
     704:	8c 2f       	mov	r24, r28
     706:	0e 94 98 03 	call	0x730	; 0x730 <SPI_communicate>
	set_bit(slave_cs_reg, slave_cs_bit);	//Deactivates
     70a:	c4 9a       	sbi	0x18, 4	; 24
}
     70c:	df 91       	pop	r29
     70e:	cf 91       	pop	r28
     710:	1f 91       	pop	r17
     712:	08 95       	ret

00000714 <mcp2515_reset>:

void mcp2515_reset(){
	clear_bit(slave_cs_reg, slave_cs_bit);	//Aktiverer can controller
     714:	c4 98       	cbi	0x18, 4	; 24
	SPI_communicate(MCP_RESET);				//Sends instruction
     716:	80 ec       	ldi	r24, 0xC0	; 192
     718:	0e 94 98 03 	call	0x730	; 0x730 <SPI_communicate>
	set_bit(slave_cs_reg, slave_cs_bit);	//Deactivates
     71c:	c4 9a       	sbi	0x18, 4	; 24
     71e:	08 95       	ret

00000720 <SPI_init>:

#include "spi.h"

void SPI_init(void){
	/* Set MOSI and SCK output, all others input */
	set_bit(master_out_ddr, master_out_bit);
     720:	bd 9a       	sbi	0x17, 5	; 23
	clear_bit(master_inn_ddr, master_inn_bit);
     722:	be 98       	cbi	0x17, 6	; 23
	set_bit(slave_clk_ddr, slave_clk_bit);
     724:	bf 9a       	sbi	0x17, 7	; 23
	set_bit(slave_cs_ddr, slave_cs_bit);
     726:	bc 9a       	sbi	0x17, 4	; 23
	
	
	/* Enable SPI, Master, set clock rate fck/16 */
	SPCR |= (1<<SPE)|(1<<MSTR)|(1<<SPR0);
     728:	8d b1       	in	r24, 0x0d	; 13
     72a:	81 65       	ori	r24, 0x51	; 81
     72c:	8d b9       	out	0x0d, r24	; 13
     72e:	08 95       	ret

00000730 <SPI_communicate>:
	//SPIE, interrupt enable
}

char SPI_communicate(char cData){
	/* Start transmission */
	SPDR = cData;
     730:	8f b9       	out	0x0f, r24	; 15
	/* Wait for transmission complete */
	while( !(SPSR&(1<<SPIF)) );
     732:	77 9b       	sbis	0x0e, 7	; 14
     734:	fe cf       	rjmp	.-4      	; 0x732 <SPI_communicate+0x2>
	return SPDR;
     736:	8f b1       	in	r24, 0x0f	; 15
     738:	08 95       	ret

0000073a <USART_Transmit>:
}

void USART_transmit(unsigned char data){
	//Wait for empty transmit buffer
	while( !(UCSR0A&(1<<UDRE0)) );

     73a:	5d 9b       	sbis	0x0b, 5	; 11
     73c:	fe cf       	rjmp	.-4      	; 0x73a <USART_Transmit>
	//Put data into buffer, sends the data
	UDR0 = data;
}
     73e:	8c b9       	out	0x0c, r24	; 12
     740:	08 95       	ret

00000742 <USART_Receive>:

unsigned char USART_receive(void){
	//Wait for data to be received
	while( !(UCSR0A&(1<<RXC0)) );
	//Get and return received data from buffer
	return UDR0;
     742:	5f 9b       	sbis	0x0b, 7	; 11
     744:	fe cf       	rjmp	.-4      	; 0x742 <USART_Receive>
}
     746:	8c b1       	in	r24, 0x0c	; 12
     748:	08 95       	ret

0000074a <USART_init>:
void USART_init(){
	//ubbr = F_CPU
	int baudRate = BAUD;
	unsigned int ubrr = F_CPU/(16*baudRate) - 1;
	//Set baud rate
	UBRR0H = (unsigned char)(ubrr>>8);
     74a:	8f ef       	ldi	r24, 0xFF	; 255
     74c:	80 bd       	out	0x20, r24	; 32
	UBRR0L = (unsigned char)ubrr;
     74e:	8f e0       	ldi	r24, 0x0F	; 15
     750:	89 b9       	out	0x09, r24	; 9
	
	//Enable receiver and transmitter
	UCSR0B = (1<<RXEN0)|(1<<TXEN0);
     752:	88 e1       	ldi	r24, 0x18	; 24
     754:	8a b9       	out	0x0a, r24	; 10
		//RXEN: Activates USART receiver
		//TXEN: Activates USART transmitter
		
	
	//Set frame format: 8data, 2stop bit
	UCSR0C = (1<<URSEL0)|(1<<USBS0)|(3<<UCSZ00);
     756:	8e e8       	ldi	r24, 0x8E	; 142
     758:	80 bd       	out	0x20, r24	; 32
		//URSEL: Writes to UCSRC instead of UBRRH, when 1.
		//USBS0: Number of stop bits, 0->1bit, 1->2bit
		//UCZ0/1/2: Character size 011->8bit. 
		
	//Enable printf;
	fdevopen(USART_transmit, USART_receive);
     75a:	61 ea       	ldi	r22, 0xA1	; 161
     75c:	73 e0       	ldi	r23, 0x03	; 3
     75e:	8d e9       	ldi	r24, 0x9D	; 157
     760:	93 e0       	ldi	r25, 0x03	; 3
     762:	0e 94 52 0c 	call	0x18a4	; 0x18a4 <fdevopen>
     766:	08 95       	ret

00000768 <ADC_init>:
 */ 

#include "ADC_Driver.h"

void ADC_init(){
	clear_bit(INTR_DDR,INTR_bit);
     768:	b9 98       	cbi	0x17, 1	; 23
     76a:	08 95       	ret

0000076c <ADC_convert>:
}

//Channel 0-3. (tilsvarer 1-4 i datablad, 0indekserte dem)
uint8_t ADC_convert(char channel){
     76c:	84 30       	cpi	r24, 0x04	; 4
     76e:	08 f0       	brcs	.+2      	; 0x772 <ADC_convert+0x6>
     770:	83 e0       	ldi	r24, 0x03	; 3
	
	//ch1 = 0100, ch2 = 0101, ch3 = 0110, ch4 = 0111, dette er lsb
	if(channel > 3) channel = 3;
	else if(channel< 0) channel = 0;
	
	*ADC_memory = ADC_single_ended | channel;
     772:	84 60       	ori	r24, 0x04	; 4
     774:	80 93 00 14 	sts	0x1400, r24
	
	//Venter på svar
	while(read_bit(INTR_PIN,INTR_bit));
     778:	b1 99       	sbic	0x16, 1	; 22
     77a:	fe cf       	rjmp	.-4      	; 0x778 <ADC_convert+0xc>
	
	return *ADC_memory;
     77c:	80 91 00 14 	lds	r24, 0x1400
	
}
     780:	08 95       	ret

00000782 <controllers_init>:
 */ 

#include "Controllers.h"

void controllers_init(){
	clear_bit(DDRB, PB2);
     782:	ba 98       	cbi	0x17, 2	; 23
	clear_bit(DDRB, PB3);
     784:	bb 98       	cbi	0x17, 3	; 23
     786:	08 95       	ret

00000788 <joystick_calibrate>:
}


void joystick_calibrate(JoyStick* jsX, JoyStick* jsY){
     788:	0f 93       	push	r16
     78a:	1f 93       	push	r17
     78c:	cf 93       	push	r28
     78e:	df 93       	push	r29
     790:	8c 01       	movw	r16, r24
     792:	eb 01       	movw	r28, r22
	jsX->rest = ADC_convert(channelX);
     794:	81 e0       	ldi	r24, 0x01	; 1
     796:	0e 94 b6 03 	call	0x76c	; 0x76c <ADC_convert>
     79a:	f8 01       	movw	r30, r16
     79c:	84 83       	std	Z+4, r24	; 0x04
	jsY->rest = ADC_convert(channelY);
     79e:	80 e0       	ldi	r24, 0x00	; 0
     7a0:	0e 94 b6 03 	call	0x76c	; 0x76c <ADC_convert>
     7a4:	8c 83       	std	Y+4, r24	; 0x04
}
     7a6:	df 91       	pop	r29
     7a8:	cf 91       	pop	r28
     7aa:	1f 91       	pop	r17
     7ac:	0f 91       	pop	r16
     7ae:	08 95       	ret

000007b0 <joystick_user_calibrate>:

uint8_t joystick_user_calibrate(Controls* control){
     7b0:	cf 93       	push	r28
     7b2:	df 93       	push	r29
     7b4:	ec 01       	movw	r28, r24
	oled_clear();
     7b6:	0e 94 52 06 	call	0xca4	; 0xca4 <oled_clear>
	oled_print("Calibrating JS: ",0,0);
     7ba:	40 e0       	ldi	r20, 0x00	; 0
     7bc:	60 e0       	ldi	r22, 0x00	; 0
     7be:	8d e3       	ldi	r24, 0x3D	; 61
     7c0:	91 e0       	ldi	r25, 0x01	; 1
     7c2:	0e 94 ce 05 	call	0xb9c	; 0xb9c <oled_print>
	oled_print("Press R to      ",2,0);
     7c6:	40 e0       	ldi	r20, 0x00	; 0
     7c8:	62 e0       	ldi	r22, 0x02	; 2
     7ca:	8e e4       	ldi	r24, 0x4E	; 78
     7cc:	91 e0       	ldi	r25, 0x01	; 1
     7ce:	0e 94 ce 05 	call	0xb9c	; 0xb9c <oled_print>
	oled_print("calibrate       ",3,0);
     7d2:	40 e0       	ldi	r20, 0x00	; 0
     7d4:	63 e0       	ldi	r22, 0x03	; 3
     7d6:	8f e5       	ldi	r24, 0x5F	; 95
     7d8:	91 e0       	ldi	r25, 0x01	; 1
     7da:	0e 94 ce 05 	call	0xb9c	; 0xb9c <oled_print>
	
	if(control->btnR.edge){
     7de:	8c 81       	ldd	r24, Y+4	; 0x04
     7e0:	88 23       	and	r24, r24
     7e2:	49 f0       	breq	.+18     	; 0x7f6 <joystick_user_calibrate+0x46>
		joystick_calibrate(&control->jsX,&control->jsY);		
     7e4:	be 01       	movw	r22, r28
     7e6:	6f 5e       	subi	r22, 0xEF	; 239
     7e8:	7f 4f       	sbci	r23, 0xFF	; 255
     7ea:	ce 01       	movw	r24, r28
     7ec:	0c 96       	adiw	r24, 0x0c	; 12
     7ee:	0e 94 c4 03 	call	0x788	; 0x788 <joystick_calibrate>
		return 1;
     7f2:	81 e0       	ldi	r24, 0x01	; 1
     7f4:	01 c0       	rjmp	.+2      	; 0x7f8 <joystick_user_calibrate+0x48>
	}
	return 0;
     7f6:	80 e0       	ldi	r24, 0x00	; 0
	
}
     7f8:	df 91       	pop	r29
     7fa:	cf 91       	pop	r28
     7fc:	08 95       	ret

000007fe <joystick_descreet>:
	jsY->descreet = yDescTemp;
	
}

int8_t joystick_descreet(int8_t val){
	if(val > slack_js){
     7fe:	83 33       	cpi	r24, 0x33	; 51
     800:	3c f4       	brge	.+14     	; 0x810 <joystick_descreet+0x12>
		return 1;
	}
	else if(val < -slack_js){
     802:	91 e0       	ldi	r25, 0x01	; 1
     804:	8e 3c       	cpi	r24, 0xCE	; 206
     806:	0c f0       	brlt	.+2      	; 0x80a <joystick_descreet+0xc>
     808:	90 e0       	ldi	r25, 0x00	; 0
     80a:	89 2f       	mov	r24, r25
     80c:	81 95       	neg	r24
     80e:	08 95       	ret
	
}

int8_t joystick_descreet(int8_t val){
	if(val > slack_js){
		return 1;
     810:	81 e0       	ldi	r24, 0x01	; 1
		return -1;
	}
	else{
		return 0;
	}
}
     812:	08 95       	ret

00000814 <joystick_update>:
	}
	return 0;
	
}

void joystick_update(JoyStick* jsX, JoyStick* jsY){
     814:	ff 92       	push	r15
     816:	0f 93       	push	r16
     818:	1f 93       	push	r17
     81a:	cf 93       	push	r28
     81c:	df 93       	push	r29
     81e:	ec 01       	movw	r28, r24
     820:	8b 01       	movw	r16, r22
	jsX->voltage = ADC_convert(channelX);
     822:	81 e0       	ldi	r24, 0x01	; 1
     824:	0e 94 b6 03 	call	0x76c	; 0x76c <ADC_convert>
     828:	88 83       	st	Y, r24
	jsY->voltage = ADC_convert(channelY);
     82a:	80 e0       	ldi	r24, 0x00	; 0
     82c:	0e 94 b6 03 	call	0x76c	; 0x76c <ADC_convert>
     830:	f8 01       	movw	r30, r16
     832:	80 83       	st	Z, r24
	
	if(jsX->voltage <= jsX->rest){
     834:	48 81       	ld	r20, Y
     836:	2c 81       	ldd	r18, Y+4	; 0x04
     838:	24 17       	cp	r18, r20
     83a:	88 f0       	brcs	.+34     	; 0x85e <joystick_update+0x4a>
		jsX->percent = (jsX->voltage - jsX->rest)*100/(jsX->rest-1);
     83c:	62 2f       	mov	r22, r18
     83e:	70 e0       	ldi	r23, 0x00	; 0
     840:	50 e0       	ldi	r21, 0x00	; 0
     842:	46 1b       	sub	r20, r22
     844:	57 0b       	sbc	r21, r23
     846:	24 e6       	ldi	r18, 0x64	; 100
     848:	24 9f       	mul	r18, r20
     84a:	c0 01       	movw	r24, r0
     84c:	25 9f       	mul	r18, r21
     84e:	90 0d       	add	r25, r0
     850:	11 24       	eor	r1, r1
     852:	61 50       	subi	r22, 0x01	; 1
     854:	71 09       	sbc	r23, r1
     856:	0e 94 b7 0b 	call	0x176e	; 0x176e <__divmodhi4>
     85a:	69 83       	std	Y+1, r22	; 0x01
     85c:	11 c0       	rjmp	.+34     	; 0x880 <joystick_update+0x6c>
	}
	else{
		jsX->percent = (jsX->voltage - jsX->rest)*100/(255-jsX->rest);
     85e:	30 e0       	ldi	r19, 0x00	; 0
     860:	50 e0       	ldi	r21, 0x00	; 0
     862:	42 1b       	sub	r20, r18
     864:	53 0b       	sbc	r21, r19
     866:	64 e6       	ldi	r22, 0x64	; 100
     868:	64 9f       	mul	r22, r20
     86a:	c0 01       	movw	r24, r0
     86c:	65 9f       	mul	r22, r21
     86e:	90 0d       	add	r25, r0
     870:	11 24       	eor	r1, r1
     872:	6f ef       	ldi	r22, 0xFF	; 255
     874:	70 e0       	ldi	r23, 0x00	; 0
     876:	62 1b       	sub	r22, r18
     878:	73 0b       	sbc	r23, r19
     87a:	0e 94 b7 0b 	call	0x176e	; 0x176e <__divmodhi4>
     87e:	69 83       	std	Y+1, r22	; 0x01
	}
	if(jsY->voltage <= jsY->rest){
     880:	f8 01       	movw	r30, r16
     882:	40 81       	ld	r20, Z
     884:	24 81       	ldd	r18, Z+4	; 0x04
     886:	24 17       	cp	r18, r20
     888:	88 f0       	brcs	.+34     	; 0x8ac <joystick_update+0x98>
		jsY->percent = (jsY->voltage - jsY->rest)*100/(jsY->rest-1);
     88a:	62 2f       	mov	r22, r18
     88c:	70 e0       	ldi	r23, 0x00	; 0
     88e:	50 e0       	ldi	r21, 0x00	; 0
     890:	46 1b       	sub	r20, r22
     892:	57 0b       	sbc	r21, r23
     894:	24 e6       	ldi	r18, 0x64	; 100
     896:	24 9f       	mul	r18, r20
     898:	c0 01       	movw	r24, r0
     89a:	25 9f       	mul	r18, r21
     89c:	90 0d       	add	r25, r0
     89e:	11 24       	eor	r1, r1
     8a0:	61 50       	subi	r22, 0x01	; 1
     8a2:	71 09       	sbc	r23, r1
     8a4:	0e 94 b7 0b 	call	0x176e	; 0x176e <__divmodhi4>
     8a8:	61 83       	std	Z+1, r22	; 0x01
     8aa:	12 c0       	rjmp	.+36     	; 0x8d0 <joystick_update+0xbc>
	}
	else{
		jsY->percent = (jsY->voltage - jsY->rest)*100/(255-jsY->rest);
     8ac:	30 e0       	ldi	r19, 0x00	; 0
     8ae:	50 e0       	ldi	r21, 0x00	; 0
     8b0:	42 1b       	sub	r20, r18
     8b2:	53 0b       	sbc	r21, r19
     8b4:	64 e6       	ldi	r22, 0x64	; 100
     8b6:	64 9f       	mul	r22, r20
     8b8:	c0 01       	movw	r24, r0
     8ba:	65 9f       	mul	r22, r21
     8bc:	90 0d       	add	r25, r0
     8be:	11 24       	eor	r1, r1
     8c0:	6f ef       	ldi	r22, 0xFF	; 255
     8c2:	70 e0       	ldi	r23, 0x00	; 0
     8c4:	62 1b       	sub	r22, r18
     8c6:	73 0b       	sbc	r23, r19
     8c8:	0e 94 b7 0b 	call	0x176e	; 0x176e <__divmodhi4>
     8cc:	f8 01       	movw	r30, r16
     8ce:	61 83       	std	Z+1, r22	; 0x01
	}
	
	int8_t xDescTemp = joystick_descreet(jsX->percent);
     8d0:	89 81       	ldd	r24, Y+1	; 0x01
     8d2:	0e 94 ff 03 	call	0x7fe	; 0x7fe <joystick_descreet>
     8d6:	f8 2e       	mov	r15, r24
	int8_t yDescTemp = joystick_descreet(jsY->percent);
     8d8:	f8 01       	movw	r30, r16
     8da:	81 81       	ldd	r24, Z+1	; 0x01
     8dc:	0e 94 ff 03 	call	0x7fe	; 0x7fe <joystick_descreet>
	
	if(xDescTemp != jsX->descreet){
     8e0:	9a 81       	ldd	r25, Y+2	; 0x02
     8e2:	9f 15       	cp	r25, r15
     8e4:	11 f0       	breq	.+4      	; 0x8ea <joystick_update+0xd6>
		jsX->descreet_edge = xDescTemp;
     8e6:	fb 82       	std	Y+3, r15	; 0x03
     8e8:	01 c0       	rjmp	.+2      	; 0x8ec <joystick_update+0xd8>
	}
	else{
		jsX->descreet_edge = 0;
     8ea:	1b 82       	std	Y+3, r1	; 0x03
	}
	
	if(yDescTemp != jsY->descreet){
     8ec:	f8 01       	movw	r30, r16
     8ee:	92 81       	ldd	r25, Z+2	; 0x02
     8f0:	98 17       	cp	r25, r24
     8f2:	11 f0       	breq	.+4      	; 0x8f8 <joystick_update+0xe4>
		jsY->descreet_edge = yDescTemp;
     8f4:	83 83       	std	Z+3, r24	; 0x03
     8f6:	02 c0       	rjmp	.+4      	; 0x8fc <joystick_update+0xe8>
	}
	else{
		jsY->descreet_edge = 0;
     8f8:	f8 01       	movw	r30, r16
     8fa:	13 82       	std	Z+3, r1	; 0x03
	}
	
	jsX->descreet = xDescTemp;
     8fc:	fa 82       	std	Y+2, r15	; 0x02
	jsY->descreet = yDescTemp;
     8fe:	f8 01       	movw	r30, r16
     900:	82 83       	std	Z+2, r24	; 0x02
	
}
     902:	df 91       	pop	r29
     904:	cf 91       	pop	r28
     906:	1f 91       	pop	r17
     908:	0f 91       	pop	r16
     90a:	ff 90       	pop	r15
     90c:	08 95       	ret

0000090e <slider_update>:
		return 0;
	}
}


void slider_update(Slider* slL, Slider* slR){
     90e:	ff 92       	push	r15
     910:	0f 93       	push	r16
     912:	1f 93       	push	r17
     914:	cf 93       	push	r28
     916:	df 93       	push	r29
     918:	8c 01       	movw	r16, r24
     91a:	eb 01       	movw	r28, r22
	uint8_t r_voltage = ADC_convert(channel_R_slider);
     91c:	83 e0       	ldi	r24, 0x03	; 3
     91e:	0e 94 b6 03 	call	0x76c	; 0x76c <ADC_convert>
     922:	f8 2e       	mov	r15, r24
	uint8_t l_voltage = ADC_convert(channel_L_slider);
     924:	82 e0       	ldi	r24, 0x02	; 2
     926:	0e 94 b6 03 	call	0x76c	; 0x76c <ADC_convert>
	
	if(l_voltage < slL->voltage - slack_update_slider  || l_voltage > slL->voltage + slack_update_slider){
     92a:	68 2f       	mov	r22, r24
     92c:	70 e0       	ldi	r23, 0x00	; 0
     92e:	f8 01       	movw	r30, r16
     930:	20 81       	ld	r18, Z
     932:	30 e0       	ldi	r19, 0x00	; 0
     934:	a9 01       	movw	r20, r18
     936:	4b 50       	subi	r20, 0x0B	; 11
     938:	51 09       	sbc	r21, r1
     93a:	64 17       	cp	r22, r20
     93c:	75 07       	cpc	r23, r21
     93e:	2c f0       	brlt	.+10     	; 0x94a <slider_update+0x3c>
     940:	25 5f       	subi	r18, 0xF5	; 245
     942:	3f 4f       	sbci	r19, 0xFF	; 255
     944:	26 17       	cp	r18, r22
     946:	37 07       	cpc	r19, r23
     948:	3c f5       	brge	.+78     	; 0x998 <slider_update+0x8a>
		slL->voltage = l_voltage;
     94a:	f8 01       	movw	r30, r16
     94c:	80 83       	st	Z, r24
		slL->percent = (2*slL->voltage/2.55) - 100;
     94e:	66 0f       	add	r22, r22
     950:	77 1f       	adc	r23, r23
     952:	88 27       	eor	r24, r24
     954:	77 fd       	sbrc	r23, 7
     956:	80 95       	com	r24
     958:	98 2f       	mov	r25, r24
     95a:	0e 94 2b 0b 	call	0x1656	; 0x1656 <__floatsisf>
     95e:	23 e3       	ldi	r18, 0x33	; 51
     960:	33 e3       	ldi	r19, 0x33	; 51
     962:	43 e2       	ldi	r20, 0x23	; 35
     964:	50 e4       	ldi	r21, 0x40	; 64
     966:	0e 94 90 0a 	call	0x1520	; 0x1520 <__divsf3>
     96a:	20 e0       	ldi	r18, 0x00	; 0
     96c:	30 e0       	ldi	r19, 0x00	; 0
     96e:	48 ec       	ldi	r20, 0xC8	; 200
     970:	52 e4       	ldi	r21, 0x42	; 66
     972:	0e 94 2b 0a 	call	0x1456	; 0x1456 <__subsf3>
     976:	0e 94 f8 0a 	call	0x15f0	; 0x15f0 <__fixsfsi>
     97a:	f8 01       	movw	r30, r16
     97c:	61 83       	std	Z+1, r22	; 0x01
		if(slL->percent < 50-slack_slider){
     97e:	63 32       	cpi	r22, 0x23	; 35
     980:	1c f4       	brge	.+6      	; 0x988 <slider_update+0x7a>
			slL->descreet = -1;
     982:	8f ef       	ldi	r24, 0xFF	; 255
     984:	82 83       	std	Z+2, r24	; 0x02
     986:	08 c0       	rjmp	.+16     	; 0x998 <slider_update+0x8a>
		}
		else if(slL->percent > 50 + slack_slider){
     988:	62 34       	cpi	r22, 0x42	; 66
     98a:	24 f0       	brlt	.+8      	; 0x994 <slider_update+0x86>
			slL->descreet = + 1;
     98c:	81 e0       	ldi	r24, 0x01	; 1
     98e:	f8 01       	movw	r30, r16
     990:	82 83       	std	Z+2, r24	; 0x02
     992:	02 c0       	rjmp	.+4      	; 0x998 <slider_update+0x8a>
		}
		else{
			slL->descreet = 0;
     994:	f8 01       	movw	r30, r16
     996:	12 82       	std	Z+2, r1	; 0x02
		};
	}
	if(r_voltage < slR->voltage - slack_update_slider  || r_voltage > slR->voltage + slack_update_slider){
     998:	6f 2d       	mov	r22, r15
     99a:	70 e0       	ldi	r23, 0x00	; 0
     99c:	88 81       	ld	r24, Y
     99e:	90 e0       	ldi	r25, 0x00	; 0
     9a0:	9c 01       	movw	r18, r24
     9a2:	2b 50       	subi	r18, 0x0B	; 11
     9a4:	31 09       	sbc	r19, r1
     9a6:	62 17       	cp	r22, r18
     9a8:	73 07       	cpc	r23, r19
     9aa:	24 f0       	brlt	.+8      	; 0x9b4 <slider_update+0xa6>
     9ac:	0b 96       	adiw	r24, 0x0b	; 11
     9ae:	86 17       	cp	r24, r22
     9b0:	97 07       	cpc	r25, r23
     9b2:	1c f5       	brge	.+70     	; 0x9fa <slider_update+0xec>
		slR->voltage = r_voltage;
     9b4:	f8 82       	st	Y, r15
		slR->percent = (2*slR->voltage/2.55) - 100;
     9b6:	66 0f       	add	r22, r22
     9b8:	77 1f       	adc	r23, r23
     9ba:	88 27       	eor	r24, r24
     9bc:	77 fd       	sbrc	r23, 7
     9be:	80 95       	com	r24
     9c0:	98 2f       	mov	r25, r24
     9c2:	0e 94 2b 0b 	call	0x1656	; 0x1656 <__floatsisf>
     9c6:	23 e3       	ldi	r18, 0x33	; 51
     9c8:	33 e3       	ldi	r19, 0x33	; 51
     9ca:	43 e2       	ldi	r20, 0x23	; 35
     9cc:	50 e4       	ldi	r21, 0x40	; 64
     9ce:	0e 94 90 0a 	call	0x1520	; 0x1520 <__divsf3>
     9d2:	20 e0       	ldi	r18, 0x00	; 0
     9d4:	30 e0       	ldi	r19, 0x00	; 0
     9d6:	48 ec       	ldi	r20, 0xC8	; 200
     9d8:	52 e4       	ldi	r21, 0x42	; 66
     9da:	0e 94 2b 0a 	call	0x1456	; 0x1456 <__subsf3>
     9de:	0e 94 f8 0a 	call	0x15f0	; 0x15f0 <__fixsfsi>
     9e2:	69 83       	std	Y+1, r22	; 0x01
		if(slR->percent < 50 - slack_slider){
     9e4:	63 32       	cpi	r22, 0x23	; 35
     9e6:	1c f4       	brge	.+6      	; 0x9ee <slider_update+0xe0>
			slR->descreet =	-1;
     9e8:	8f ef       	ldi	r24, 0xFF	; 255
     9ea:	8a 83       	std	Y+2, r24	; 0x02
     9ec:	06 c0       	rjmp	.+12     	; 0x9fa <slider_update+0xec>
		}
		else if(slR->percent > 50 + slack_slider){
     9ee:	62 34       	cpi	r22, 0x42	; 66
     9f0:	1c f0       	brlt	.+6      	; 0x9f8 <slider_update+0xea>
			slR->descreet = + 1;
     9f2:	81 e0       	ldi	r24, 0x01	; 1
     9f4:	8a 83       	std	Y+2, r24	; 0x02
     9f6:	01 c0       	rjmp	.+2      	; 0x9fa <slider_update+0xec>
		}
		else{
			slR->descreet = 0;
     9f8:	1a 82       	std	Y+2, r1	; 0x02
		};
	}
}
     9fa:	df 91       	pop	r29
     9fc:	cf 91       	pop	r28
     9fe:	1f 91       	pop	r17
     a00:	0f 91       	pop	r16
     a02:	ff 90       	pop	r15
     a04:	08 95       	ret

00000a06 <read_button>:

void read_button(Button* btnL, Button* btnR){	
     a06:	dc 01       	movw	r26, r24
     a08:	fb 01       	movw	r30, r22
	btnL->edge = 0;
     a0a:	11 96       	adiw	r26, 0x01	; 1
     a0c:	1c 92       	st	X, r1
     a0e:	11 97       	sbiw	r26, 0x01	; 1
	btnR->edge = 0;
     a10:	11 82       	std	Z+1, r1	; 0x01
	
	if (btn_A != btnL->state && btnL->state == 0){
     a12:	96 b3       	in	r25, 0x16	; 22
     a14:	8c 91       	ld	r24, X
     a16:	94 70       	andi	r25, 0x04	; 4
     a18:	89 17       	cp	r24, r25
     a1a:	69 f0       	breq	.+26     	; 0xa36 <read_button+0x30>
     a1c:	81 11       	cpse	r24, r1
     a1e:	0b c0       	rjmp	.+22     	; 0xa36 <read_button+0x30>
		btnL->edge = 1;
     a20:	81 e0       	ldi	r24, 0x01	; 1
     a22:	11 96       	adiw	r26, 0x01	; 1
     a24:	8c 93       	st	X, r24
     a26:	11 97       	sbiw	r26, 0x01	; 1
		btnL->pressCount++;
     a28:	12 96       	adiw	r26, 0x02	; 2
     a2a:	8c 91       	ld	r24, X
     a2c:	12 97       	sbiw	r26, 0x02	; 2
     a2e:	8f 5f       	subi	r24, 0xFF	; 255
     a30:	12 96       	adiw	r26, 0x02	; 2
     a32:	8c 93       	st	X, r24
     a34:	12 97       	sbiw	r26, 0x02	; 2
	}
	if (btn_B != btnR->state && btnR->state == 0){
     a36:	96 b3       	in	r25, 0x16	; 22
     a38:	80 81       	ld	r24, Z
     a3a:	98 70       	andi	r25, 0x08	; 8
     a3c:	98 17       	cp	r25, r24
     a3e:	39 f0       	breq	.+14     	; 0xa4e <read_button+0x48>
     a40:	81 11       	cpse	r24, r1
     a42:	05 c0       	rjmp	.+10     	; 0xa4e <read_button+0x48>
		btnR->edge = 1;
     a44:	81 e0       	ldi	r24, 0x01	; 1
     a46:	81 83       	std	Z+1, r24	; 0x01
		btnR->pressCount++;
     a48:	82 81       	ldd	r24, Z+2	; 0x02
     a4a:	8f 5f       	subi	r24, 0xFF	; 255
     a4c:	82 83       	std	Z+2, r24	; 0x02
	}
	
	btnL->state = btn_A;
     a4e:	86 b3       	in	r24, 0x16	; 22
     a50:	84 70       	andi	r24, 0x04	; 4
     a52:	8c 93       	st	X, r24
	btnR->state = btn_B;
     a54:	86 b3       	in	r24, 0x16	; 22
     a56:	88 70       	andi	r24, 0x08	; 8
     a58:	80 83       	st	Z, r24
     a5a:	08 95       	ret

00000a5c <controllers_update>:
}

void controllers_update(Controls* controls){
     a5c:	cf 93       	push	r28
     a5e:	df 93       	push	r29
     a60:	ec 01       	movw	r28, r24
		joystick_update(&controls->jsX,&controls->jsY);
     a62:	bc 01       	movw	r22, r24
     a64:	6f 5e       	subi	r22, 0xEF	; 239
     a66:	7f 4f       	sbci	r23, 0xFF	; 255
     a68:	0c 96       	adiw	r24, 0x0c	; 12
     a6a:	0e 94 0a 04 	call	0x814	; 0x814 <joystick_update>
		slider_update(&controls->sliderL,&controls->sliderR);
     a6e:	be 01       	movw	r22, r28
     a70:	67 5f       	subi	r22, 0xF7	; 247
     a72:	7f 4f       	sbci	r23, 0xFF	; 255
     a74:	ce 01       	movw	r24, r28
     a76:	06 96       	adiw	r24, 0x06	; 6
     a78:	0e 94 87 04 	call	0x90e	; 0x90e <slider_update>
		read_button(&controls->btnL,&controls->btnR);
     a7c:	be 01       	movw	r22, r28
     a7e:	6d 5f       	subi	r22, 0xFD	; 253
     a80:	7f 4f       	sbci	r23, 0xFF	; 255
     a82:	ce 01       	movw	r24, r28
     a84:	0e 94 03 05 	call	0xa06	; 0xa06 <read_button>
     a88:	df 91       	pop	r29
     a8a:	cf 91       	pop	r28
     a8c:	08 95       	ret

00000a8e <SRAM_test>:
	set_bit(SFIOR, XMM2);	//100 -> releaser pc7-pc4 fra minne opperasjoner, til å bli brukt i jtag.
	SRAM_test();
}


void SRAM_test(void){
     a8e:	ef 92       	push	r14
     a90:	ff 92       	push	r15
     a92:	0f 93       	push	r16
     a94:	1f 93       	push	r17
     a96:	cf 93       	push	r28
     a98:	df 93       	push	r29
	volatile char *ext_ram = (char *) 0x1800; // Start address for the SRAM
	uint16_t ext_ram_size = 0x800; //0x800 = 2048 = 2^11. Vi har 11 adresselinjer, så vi klarer å snakke med 2048 minne plasseringer
	uint16_t write_errors = 0;
	uint16_t retrieval_errors = 0;
	printf("Starting SRAM test...\n\r");
     a9a:	80 e7       	ldi	r24, 0x70	; 112
     a9c:	91 e0       	ldi	r25, 0x01	; 1
     a9e:	9f 93       	push	r25
     aa0:	8f 93       	push	r24
     aa2:	0e 94 9d 0c 	call	0x193a	; 0x193a <printf>
	// rand() stores some internal state, so calling this function in a loop will
	// yield different seeds each time (unless srand() is called before this function)
	uint16_t seed = rand();
     aa6:	0e 94 42 0c 	call	0x1884	; 0x1884 <rand>
     aaa:	7c 01       	movw	r14, r24
	// Write phase: Immediately check that the correct value was stored
	srand(seed);
     aac:	0e 94 47 0c 	call	0x188e	; 0x188e <srand>
     ab0:	0f 90       	pop	r0
     ab2:	0f 90       	pop	r0
     ab4:	c0 e0       	ldi	r28, 0x00	; 0
     ab6:	d8 e1       	ldi	r29, 0x18	; 24


void SRAM_test(void){
	volatile char *ext_ram = (char *) 0x1800; // Start address for the SRAM
	uint16_t ext_ram_size = 0x800; //0x800 = 2048 = 2^11. Vi har 11 adresselinjer, så vi klarer å snakke med 2048 minne plasseringer
	uint16_t write_errors = 0;
     ab8:	00 e0       	ldi	r16, 0x00	; 0
     aba:	10 e0       	ldi	r17, 0x00	; 0
	// yield different seeds each time (unless srand() is called before this function)
	uint16_t seed = rand();
	// Write phase: Immediately check that the correct value was stored
	srand(seed);
	for (uint16_t i = 0; i < ext_ram_size; i++) {	//Går gjennom hele det eksterne minnet vi har tillgang til
		uint8_t some_value = rand();
     abc:	0e 94 42 0c 	call	0x1884	; 0x1884 <rand>
		ext_ram[i] = some_value;					//Setter inn en tilfeldig verdi
     ac0:	88 83       	st	Y, r24
		uint8_t retreived_value = ext_ram[i];		//Måler den tilbake
     ac2:	98 81       	ld	r25, Y
		if (retreived_value != some_value) {		//Registrerer om den ble rett.
     ac4:	98 17       	cp	r25, r24
     ac6:	11 f0       	breq	.+4      	; 0xacc <SRAM_test+0x3e>
			//printf("Write phase error: ext_ram[%4d] = %02X (should be %02X)\n\r", i,retreived_value, some_value);
			write_errors++;
     ac8:	0f 5f       	subi	r16, 0xFF	; 255
     aca:	1f 4f       	sbci	r17, 0xFF	; 255
     acc:	21 96       	adiw	r28, 0x01	; 1
	// rand() stores some internal state, so calling this function in a loop will
	// yield different seeds each time (unless srand() is called before this function)
	uint16_t seed = rand();
	// Write phase: Immediately check that the correct value was stored
	srand(seed);
	for (uint16_t i = 0; i < ext_ram_size; i++) {	//Går gjennom hele det eksterne minnet vi har tillgang til
     ace:	c1 15       	cp	r28, r1
     ad0:	80 e2       	ldi	r24, 0x20	; 32
     ad2:	d8 07       	cpc	r29, r24
     ad4:	99 f7       	brne	.-26     	; 0xabc <SRAM_test+0x2e>
			//printf("Write phase error: ext_ram[%4d] = %02X (should be %02X)\n\r", i,retreived_value, some_value);
			write_errors++;
		}
	}
	// Retrieval phase: Check that no values were changed during or after the write phase 
	srand(seed);
     ad6:	c7 01       	movw	r24, r14
     ad8:	0e 94 47 0c 	call	0x188e	; 0x188e <srand>
     adc:	c0 e0       	ldi	r28, 0x00	; 0
     ade:	d8 e1       	ldi	r29, 0x18	; 24

void SRAM_test(void){
	volatile char *ext_ram = (char *) 0x1800; // Start address for the SRAM
	uint16_t ext_ram_size = 0x800; //0x800 = 2048 = 2^11. Vi har 11 adresselinjer, så vi klarer å snakke med 2048 minne plasseringer
	uint16_t write_errors = 0;
	uint16_t retrieval_errors = 0;
     ae0:	e1 2c       	mov	r14, r1
     ae2:	f1 2c       	mov	r15, r1
	}
	// Retrieval phase: Check that no values were changed during or after the write phase 
	srand(seed);
	// reset the PRNG to the state it had before the write phase
	for (uint16_t i = 0; i < ext_ram_size; i++) {
		uint8_t some_value = rand();
     ae4:	0e 94 42 0c 	call	0x1884	; 0x1884 <rand>
		uint8_t retreived_value = ext_ram[i];
     ae8:	98 81       	ld	r25, Y
		if (retreived_value != some_value) {
     aea:	98 17       	cp	r25, r24
     aec:	19 f0       	breq	.+6      	; 0xaf4 <SRAM_test+0x66>
			//printf("Retrieval phase error: ext_ram[%4d] = %02X (should be %02X)\n\r", i, retreived_value, some_value);
			retrieval_errors++;
     aee:	8f ef       	ldi	r24, 0xFF	; 255
     af0:	e8 1a       	sub	r14, r24
     af2:	f8 0a       	sbc	r15, r24
     af4:	21 96       	adiw	r28, 0x01	; 1
		}
	}
	// Retrieval phase: Check that no values were changed during or after the write phase 
	srand(seed);
	// reset the PRNG to the state it had before the write phase
	for (uint16_t i = 0; i < ext_ram_size; i++) {
     af6:	c1 15       	cp	r28, r1
     af8:	80 e2       	ldi	r24, 0x20	; 32
     afa:	d8 07       	cpc	r29, r24
     afc:	99 f7       	brne	.-26     	; 0xae4 <SRAM_test+0x56>
		if (retreived_value != some_value) {
			//printf("Retrieval phase error: ext_ram[%4d] = %02X (should be %02X)\n\r", i, retreived_value, some_value);
			retrieval_errors++;
		}
	}
	printf("SRAM test completed with \n\r%4d errors in write phase and \n\r%4d errors in retrieval phase \n \n\r", write_errors, retrieval_errors);
     afe:	ff 92       	push	r15
     b00:	ef 92       	push	r14
     b02:	1f 93       	push	r17
     b04:	0f 93       	push	r16
     b06:	88 e8       	ldi	r24, 0x88	; 136
     b08:	91 e0       	ldi	r25, 0x01	; 1
     b0a:	9f 93       	push	r25
     b0c:	8f 93       	push	r24
     b0e:	0e 94 9d 0c 	call	0x193a	; 0x193a <printf>
     b12:	0f 90       	pop	r0
     b14:	0f 90       	pop	r0
     b16:	0f 90       	pop	r0
     b18:	0f 90       	pop	r0
     b1a:	0f 90       	pop	r0
     b1c:	0f 90       	pop	r0
     b1e:	df 91       	pop	r29
     b20:	cf 91       	pop	r28
     b22:	1f 91       	pop	r17
     b24:	0f 91       	pop	r16
     b26:	ff 90       	pop	r15
     b28:	ef 90       	pop	r14
     b2a:	08 95       	ret

00000b2c <SRAM_init>:
 */ 

#include "external_SRAM.h"

void SRAM_init(void){
	set_bit(MCUCR, SRE);	//External ram endable
     b2c:	85 b7       	in	r24, 0x35	; 53
     b2e:	80 68       	ori	r24, 0x80	; 128
     b30:	85 bf       	out	0x35, r24	; 53
	set_bit(SFIOR, XMM2);	//100 -> releaser pc7-pc4 fra minne opperasjoner, til å bli brukt i jtag.
     b32:	80 b7       	in	r24, 0x30	; 48
     b34:	80 62       	ori	r24, 0x20	; 32
     b36:	80 bf       	out	0x30, r24	; 48
	SRAM_test();
     b38:	0e 94 47 05 	call	0xa8e	; 0xa8e <SRAM_test>
     b3c:	08 95       	ret

00000b3e <oled_goto_line>:
	oled_control = 0x00;	//LSB til startpunkt
	oled_control = 0x10;	//MSB til startbit (bortover) (så hvilken kolonne) (Kan endre siste hex tegnet fra 0 til F)
}

void oled_goto_line(uint8_t line){
	oled_control = 0xB0 | (line%8);	//Begynner på første linje
     b3e:	87 70       	andi	r24, 0x07	; 7
     b40:	80 6b       	ori	r24, 0xB0	; 176
     b42:	e0 e0       	ldi	r30, 0x00	; 0
     b44:	f0 e1       	ldi	r31, 0x10	; 16
     b46:	80 83       	st	Z, r24
	oled_control = 0x00;	//LSB til startpunkt
     b48:	10 82       	st	Z, r1
	oled_control = 0x10;	//MSB til startbit (bortover) (så hvilken kolonne) (Kan endre siste hex tegnet fra 0 til F)
     b4a:	80 e1       	ldi	r24, 0x10	; 16
     b4c:	80 83       	st	Z, r24
     b4e:	08 95       	ret

00000b50 <oled_print_char>:
}

void oled_print_char(char ch, uint8_t line, uint8_t loc){
	//Må trekke fra 32 for å slå opp i font.
	for(int j = 0; j<8; ++j){
		oled_mem_line_loc(line, loc, j) = pgm_read_byte(&font[ch-asciiOffset][j]);
     b50:	a6 2f       	mov	r26, r22
     b52:	b0 e0       	ldi	r27, 0x00	; 0
     b54:	d8 96       	adiw	r26, 0x38	; 56
     b56:	a2 95       	swap	r26
     b58:	b2 95       	swap	r27
     b5a:	b0 7f       	andi	r27, 0xF0	; 240
     b5c:	ba 27       	eor	r27, r26
     b5e:	a0 7f       	andi	r26, 0xF0	; 240
     b60:	ba 27       	eor	r27, r26
     b62:	a4 0f       	add	r26, r20
     b64:	b1 1d       	adc	r27, r1
     b66:	aa 0f       	add	r26, r26
     b68:	bb 1f       	adc	r27, r27
     b6a:	aa 0f       	add	r26, r26
     b6c:	bb 1f       	adc	r27, r27
     b6e:	aa 0f       	add	r26, r26
     b70:	bb 1f       	adc	r27, r27
     b72:	28 e0       	ldi	r18, 0x08	; 8
     b74:	82 9f       	mul	r24, r18
     b76:	c0 01       	movw	r24, r0
     b78:	11 24       	eor	r1, r1
     b7a:	8a 1b       	sub	r24, r26
     b7c:	9b 0b       	sbc	r25, r27
	}
}

void oled_print_char(char ch, uint8_t line, uint8_t loc){
	//Må trekke fra 32 for å slå opp i font.
	for(int j = 0; j<8; ++j){
     b7e:	20 e0       	ldi	r18, 0x00	; 0
     b80:	30 e0       	ldi	r19, 0x00	; 0
     b82:	82 58       	subi	r24, 0x82	; 130
     b84:	90 40       	sbci	r25, 0x00	; 0
     b86:	fc 01       	movw	r30, r24
     b88:	ea 0f       	add	r30, r26
     b8a:	fb 1f       	adc	r31, r27
		oled_mem_line_loc(line, loc, j) = pgm_read_byte(&font[ch-asciiOffset][j]);
     b8c:	e4 91       	lpm	r30, Z
     b8e:	ed 93       	st	X+, r30
	}
}

void oled_print_char(char ch, uint8_t line, uint8_t loc){
	//Må trekke fra 32 for å slå opp i font.
	for(int j = 0; j<8; ++j){
     b90:	2f 5f       	subi	r18, 0xFF	; 255
     b92:	3f 4f       	sbci	r19, 0xFF	; 255
     b94:	28 30       	cpi	r18, 0x08	; 8
     b96:	31 05       	cpc	r19, r1
     b98:	b1 f7       	brne	.-20     	; 0xb86 <oled_print_char+0x36>
		oled_mem_line_loc(line, loc, j) = pgm_read_byte(&font[ch-asciiOffset][j]);
	}
}
     b9a:	08 95       	ret

00000b9c <oled_print>:
	for(int i=0; i< 8; ++i){
		oled_clear_line(i);
	}
}
*/
void oled_print(char tekst[], uint8_t lineNr, uint8_t charStartPoint){
     b9c:	df 92       	push	r13
     b9e:	ef 92       	push	r14
     ba0:	ff 92       	push	r15
     ba2:	0f 93       	push	r16
     ba4:	1f 93       	push	r17
     ba6:	cf 93       	push	r28
     ba8:	df 93       	push	r29
     baa:	ec 01       	movw	r28, r24
     bac:	d4 2e       	mov	r13, r20
     bae:	e6 2e       	mov	r14, r22
     bb0:	87 e0       	ldi	r24, 0x07	; 7
     bb2:	86 17       	cp	r24, r22
     bb4:	20 f4       	brcc	.+8      	; 0xbbe <oled_print+0x22>
     bb6:	0f 2e       	mov	r0, r31
     bb8:	f7 e0       	ldi	r31, 0x07	; 7
     bba:	ef 2e       	mov	r14, r31
     bbc:	f0 2d       	mov	r31, r0
	if(lineNr > 7){
		lineNr = 7;
	}
	
	//Må trekke fra 32 for å slå opp i font.
	for(uint8_t i = 0; tekst[i] != '\0' && i < 16-charStartPoint; ++i){
     bbe:	88 81       	ld	r24, Y
     bc0:	88 23       	and	r24, r24
     bc2:	09 f4       	brne	.+2      	; 0xbc6 <oled_print+0x2a>
     bc4:	67 c0       	rjmp	.+206    	; 0xc94 <oled_print+0xf8>
     bc6:	00 e1       	ldi	r16, 0x10	; 16
     bc8:	10 e0       	ldi	r17, 0x00	; 0
     bca:	0d 19       	sub	r16, r13
     bcc:	11 09       	sbc	r17, r1
     bce:	10 16       	cp	r1, r16
     bd0:	11 06       	cpc	r1, r17
     bd2:	0c f0       	brlt	.+2      	; 0xbd6 <oled_print+0x3a>
     bd4:	5f c0       	rjmp	.+190    	; 0xc94 <oled_print+0xf8>
     bd6:	20 e0       	ldi	r18, 0x00	; 0
     bd8:	30 e0       	ldi	r19, 0x00	; 0
     bda:	f1 2c       	mov	r15, r1
		if(tekst[i] == '-'){
     bdc:	8d 32       	cpi	r24, 0x2D	; 45
     bde:	09 f0       	breq	.+2      	; 0xbe2 <oled_print+0x46>
     be0:	46 c0       	rjmp	.+140    	; 0xc6e <oled_print+0xd2>
			switch(tekst[i+1]){
     be2:	fe 01       	movw	r30, r28
     be4:	e2 0f       	add	r30, r18
     be6:	f3 1f       	adc	r31, r19
     be8:	81 81       	ldd	r24, Z+1	; 0x01
     bea:	8e 35       	cpi	r24, 0x5E	; 94
     bec:	59 f0       	breq	.+22     	; 0xc04 <oled_print+0x68>
     bee:	28 f4       	brcc	.+10     	; 0xbfa <oled_print+0x5e>
     bf0:	8c 33       	cpi	r24, 0x3C	; 60
     bf2:	c1 f0       	breq	.+48     	; 0xc24 <oled_print+0x88>
     bf4:	8e 33       	cpi	r24, 0x3E	; 62
     bf6:	f1 f0       	breq	.+60     	; 0xc34 <oled_print+0x98>
     bf8:	33 c0       	rjmp	.+102    	; 0xc60 <oled_print+0xc4>
     bfa:	83 37       	cpi	r24, 0x73	; 115
     bfc:	19 f1       	breq	.+70     	; 0xc44 <oled_print+0xa8>
     bfe:	86 37       	cpi	r24, 0x76	; 118
     c00:	49 f0       	breq	.+18     	; 0xc14 <oled_print+0x78>
     c02:	2e c0       	rjmp	.+92     	; 0xc60 <oled_print+0xc4>
				case '^':
				oled_print_char(127, lineNr, i+charStartPoint);
     c04:	4f 2d       	mov	r20, r15
     c06:	4d 0d       	add	r20, r13
     c08:	6e 2d       	mov	r22, r14
     c0a:	8f e7       	ldi	r24, 0x7F	; 127
     c0c:	0e 94 a8 05 	call	0xb50	; 0xb50 <oled_print_char>
				i++;
     c10:	f3 94       	inc	r15
				break;
     c12:	32 c0       	rjmp	.+100    	; 0xc78 <oled_print+0xdc>
				case 'v':
				oled_print_char(128, lineNr, i+charStartPoint);
     c14:	4f 2d       	mov	r20, r15
     c16:	4d 0d       	add	r20, r13
     c18:	6e 2d       	mov	r22, r14
     c1a:	80 e8       	ldi	r24, 0x80	; 128
     c1c:	0e 94 a8 05 	call	0xb50	; 0xb50 <oled_print_char>
				i++;
     c20:	f3 94       	inc	r15
				break;
     c22:	2a c0       	rjmp	.+84     	; 0xc78 <oled_print+0xdc>
				case '<':
				oled_print_char(129, lineNr, i+charStartPoint);
     c24:	4f 2d       	mov	r20, r15
     c26:	4d 0d       	add	r20, r13
     c28:	6e 2d       	mov	r22, r14
     c2a:	81 e8       	ldi	r24, 0x81	; 129
     c2c:	0e 94 a8 05 	call	0xb50	; 0xb50 <oled_print_char>
				i++;
     c30:	f3 94       	inc	r15
				break;
     c32:	22 c0       	rjmp	.+68     	; 0xc78 <oled_print+0xdc>
				case '>':
				oled_print_char(130, lineNr, i+charStartPoint);
     c34:	4f 2d       	mov	r20, r15
     c36:	4d 0d       	add	r20, r13
     c38:	6e 2d       	mov	r22, r14
     c3a:	82 e8       	ldi	r24, 0x82	; 130
     c3c:	0e 94 a8 05 	call	0xb50	; 0xb50 <oled_print_char>
				i++;
     c40:	f3 94       	inc	r15
				break;
     c42:	1a c0       	rjmp	.+52     	; 0xc78 <oled_print+0xdc>
				case 's':
				oled_print_char(131, lineNr, i+charStartPoint);
     c44:	4f 2d       	mov	r20, r15
     c46:	4d 0d       	add	r20, r13
     c48:	6e 2d       	mov	r22, r14
     c4a:	83 e8       	ldi	r24, 0x83	; 131
     c4c:	0e 94 a8 05 	call	0xb50	; 0xb50 <oled_print_char>
				i++;
     c50:	f3 94       	inc	r15
				oled_print_char(132, lineNr, i+charStartPoint);
     c52:	4f 2d       	mov	r20, r15
     c54:	4d 0d       	add	r20, r13
     c56:	6e 2d       	mov	r22, r14
     c58:	84 e8       	ldi	r24, 0x84	; 132
     c5a:	0e 94 a8 05 	call	0xb50	; 0xb50 <oled_print_char>
				break;
     c5e:	0c c0       	rjmp	.+24     	; 0xc78 <oled_print+0xdc>
				default:
				oled_print_char('-', lineNr, i+charStartPoint);
     c60:	4f 2d       	mov	r20, r15
     c62:	4d 0d       	add	r20, r13
     c64:	6e 2d       	mov	r22, r14
     c66:	8d e2       	ldi	r24, 0x2D	; 45
     c68:	0e 94 a8 05 	call	0xb50	; 0xb50 <oled_print_char>
				break;
     c6c:	05 c0       	rjmp	.+10     	; 0xc78 <oled_print+0xdc>
				
			}
		}
		else{
			oled_print_char(tekst[i], lineNr, i+charStartPoint);
     c6e:	4f 2d       	mov	r20, r15
     c70:	4d 0d       	add	r20, r13
     c72:	6e 2d       	mov	r22, r14
     c74:	0e 94 a8 05 	call	0xb50	; 0xb50 <oled_print_char>
	if(lineNr > 7){
		lineNr = 7;
	}
	
	//Må trekke fra 32 for å slå opp i font.
	for(uint8_t i = 0; tekst[i] != '\0' && i < 16-charStartPoint; ++i){
     c78:	f3 94       	inc	r15
     c7a:	2f 2d       	mov	r18, r15
     c7c:	30 e0       	ldi	r19, 0x00	; 0
     c7e:	fe 01       	movw	r30, r28
     c80:	e2 0f       	add	r30, r18
     c82:	f3 1f       	adc	r31, r19
     c84:	80 81       	ld	r24, Z
     c86:	88 23       	and	r24, r24
     c88:	29 f0       	breq	.+10     	; 0xc94 <oled_print+0xf8>
     c8a:	f9 01       	movw	r30, r18
     c8c:	e0 17       	cp	r30, r16
     c8e:	f1 07       	cpc	r31, r17
     c90:	0c f4       	brge	.+2      	; 0xc94 <oled_print+0xf8>
     c92:	a4 cf       	rjmp	.-184    	; 0xbdc <oled_print+0x40>
		}
		else{
			oled_print_char(tekst[i], lineNr, i+charStartPoint);
		}
	}
}
     c94:	df 91       	pop	r29
     c96:	cf 91       	pop	r28
     c98:	1f 91       	pop	r17
     c9a:	0f 91       	pop	r16
     c9c:	ff 90       	pop	r15
     c9e:	ef 90       	pop	r14
     ca0:	df 90       	pop	r13
     ca2:	08 95       	ret

00000ca4 <oled_clear>:
	for(int j = 0; j<8; ++j){
		oled_mem_line_loc(line, loc, j) = pgm_read_byte(&font[ch-asciiOffset][j]);
	}
}

void oled_clear(){
     ca4:	e0 e0       	ldi	r30, 0x00	; 0
     ca6:	fc e1       	ldi	r31, 0x1C	; 28
	volatile char* memBegin = oled_mem_begin;
	for(unsigned int i = 0; i < 1024; ++i){
		*(memBegin+i) = 0x00;
     ca8:	11 92       	st	Z+, r1
	}
}

void oled_clear(){
	volatile char* memBegin = oled_mem_begin;
	for(unsigned int i = 0; i < 1024; ++i){
     caa:	e1 15       	cp	r30, r1
     cac:	80 e2       	ldi	r24, 0x20	; 32
     cae:	f8 07       	cpc	r31, r24
     cb0:	d9 f7       	brne	.-10     	; 0xca8 <oled_clear+0x4>
		*(memBegin+i) = 0x00;
	}
}
     cb2:	08 95       	ret

00000cb4 <OLED_init>:


//Fra minnet 1C00 til 1FFF

void OLED_init(){	
	oled_control = 0xae;	 //Display off (0xaf == on)
     cb4:	e0 e0       	ldi	r30, 0x00	; 0
     cb6:	f0 e1       	ldi	r31, 0x10	; 16
     cb8:	8e ea       	ldi	r24, 0xAE	; 174
     cba:	80 83       	st	Z, r24
	
	oled_control = 0xa1;    //segment remap (Skrive v->h)
     cbc:	81 ea       	ldi	r24, 0xA1	; 161
     cbe:	80 83       	st	Z, r24
	
	oled_control = 0xda;	//common pads hardware: alternative
     cc0:	8a ed       	ldi	r24, 0xDA	; 218
     cc2:	80 83       	st	Z, r24
	oled_control = 0x12;	//0x32 = 0b11, 0x12 = 0b01, 0x02 = 0b00, 0x22 = 0b10
     cc4:	82 e1       	ldi	r24, 0x12	; 18
     cc6:	80 83       	st	Z, r24
	
	oled_control = 0xc8;    //common output scan direction:com63~com0 (skriver oppover(c0) eller nedover(c8))
     cc8:	88 ec       	ldi	r24, 0xC8	; 200
     cca:	80 83       	st	Z, r24
	
	oled_control = 0xa8;    //multiplex ration mode:
     ccc:	88 ea       	ldi	r24, 0xA8	; 168
     cce:	80 83       	st	Z, r24
	oled_control = 0x3f;	//63
     cd0:	8f e3       	ldi	r24, 0x3F	; 63
     cd2:	80 83       	st	Z, r24
	
	oled_control = 0xd5;    //display divide ratio/osc. freq. mode
     cd4:	85 ed       	ldi	r24, 0xD5	; 213
     cd6:	80 83       	st	Z, r24
	oled_control = 0x80;
     cd8:	80 e8       	ldi	r24, 0x80	; 128
     cda:	80 83       	st	Z, r24
	
	oled_control = 0x81;   //Endre kontrast til:
     cdc:	81 e8       	ldi	r24, 0x81	; 129
     cde:	80 83       	st	Z, r24
	oled_control = 0x50;	//Dette
     ce0:	80 e5       	ldi	r24, 0x50	; 80
     ce2:	80 83       	st	Z, r24
		
	oled_control = 0xd9;    //set pre-charge period
     ce4:	89 ed       	ldi	r24, 0xD9	; 217
     ce6:	80 83       	st	Z, r24
	oled_control = 0x21;
     ce8:	81 e2       	ldi	r24, 0x21	; 33
     cea:	80 83       	st	Z, r24
	
	oled_control = 0x20;	//Set Memory Addressing Mode
     cec:	90 e2       	ldi	r25, 0x20	; 32
     cee:	90 83       	st	Z, r25
	oled_control = 0x00;	//0x00: Horizontal adressing mode, 0x01 Vertical, 0x02 Page, 0x03 Invalid
     cf0:	10 82       	st	Z, r1
	
	oled_control = 0xdb;    //VCOM deselect level mode
     cf2:	9b ed       	ldi	r25, 0xDB	; 219
     cf4:	90 83       	st	Z, r25
	oled_control = 0x30;
     cf6:	90 e3       	ldi	r25, 0x30	; 48
     cf8:	90 83       	st	Z, r25
	
	oled_control = 0xad;    //master configuration
     cfa:	9d ea       	ldi	r25, 0xAD	; 173
     cfc:	90 83       	st	Z, r25
	oled_control = 0x00;
     cfe:	10 82       	st	Z, r1
	
	oled_control = 0xa4;    //out follows RAM content (a5 = alle led lyser)
     d00:	94 ea       	ldi	r25, 0xA4	; 164
     d02:	90 83       	st	Z, r25
	
	oled_control = 0xa6;    //set normal display (a7 = invert)
     d04:	96 ea       	ldi	r25, 0xA6	; 166
     d06:	90 83       	st	Z, r25
	
	
	oled_control = 0x21;	//Hvor man begynner og slutter på en linje
     d08:	80 83       	st	Z, r24
	oled_control = 0x00;	//Fra start
     d0a:	10 82       	st	Z, r1
	oled_control = 0xFF;	//Til slutt
     d0c:	8f ef       	ldi	r24, 0xFF	; 255
     d0e:	80 83       	st	Z, r24
	
	oled_control = 0x22;	//Hvor man begynner og slutter opp go ned
     d10:	92 e2       	ldi	r25, 0x22	; 34
     d12:	90 83       	st	Z, r25
	oled_control = 0x00;	//Fra start
     d14:	10 82       	st	Z, r1
	oled_control = 0xFF;	//Til slutt
     d16:	80 83       	st	Z, r24
	
	
	oled_control = 0x40;	//Siste hextegn bestemmer hvor mye teksten flyttes opp, en verdi per bit opp. Funker ikke å endre underveis i koden?
     d18:	80 e4       	ldi	r24, 0x40	; 64
     d1a:	80 83       	st	Z, r24
     d1c:	80 e0       	ldi	r24, 0x00	; 0
     d1e:	94 e0       	ldi	r25, 0x04	; 4
	
	//Tømmer skjermen
	for(unsigned int i = 0; i < 1024; ++i){
		oled_data = 0b00000000;
     d20:	e0 e0       	ldi	r30, 0x00	; 0
     d22:	f2 e1       	ldi	r31, 0x12	; 18
     d24:	10 82       	st	Z, r1
     d26:	01 97       	sbiw	r24, 0x01	; 1
	
	
	oled_control = 0x40;	//Siste hextegn bestemmer hvor mye teksten flyttes opp, en verdi per bit opp. Funker ikke å endre underveis i koden?
	
	//Tømmer skjermen
	for(unsigned int i = 0; i < 1024; ++i){
     d28:	00 97       	sbiw	r24, 0x00	; 0
     d2a:	e1 f7       	brne	.-8      	; 0xd24 <OLED_init+0x70>
		oled_data = 0b00000000;
	}
	
	oled_control = 0x20;	//Set Memory Addressing Mode
     d2c:	e0 e0       	ldi	r30, 0x00	; 0
     d2e:	f0 e1       	ldi	r31, 0x10	; 16
     d30:	80 e2       	ldi	r24, 0x20	; 32
     d32:	80 83       	st	Z, r24
	oled_control = 0x00;	//0x00: Horizontal adressing mode, 0x01 Vertical, 0x02 Page, 0x03 Invalid
     d34:	10 82       	st	Z, r1
	
	
	oled_control = 0xB0;	//Begynner på første linje
     d36:	80 eb       	ldi	r24, 0xB0	; 176
     d38:	80 83       	st	Z, r24
	oled_control = 0x00;	//LSB til startpunkt
     d3a:	10 82       	st	Z, r1
	oled_control = 0x10;	//MSB til startbit (bortover) (så hvilken kolonne) (Kan endre siste hex tegnet fra 0 til F)
     d3c:	80 e1       	ldi	r24, 0x10	; 16
     d3e:	80 83       	st	Z, r24
	
	
	
	oled_control = 0xaf;    // display on
     d40:	8f ea       	ldi	r24, 0xAF	; 175
     d42:	80 83       	st	Z, r24
	
	
	oled_clear();
     d44:	0e 94 52 06 	call	0xca4	; 0xca4 <oled_clear>
     d48:	08 95       	ret

00000d4a <oled_update_screen>:
	}
}


void oled_update_screen(){
	oled_goto_line(0);
     d4a:	80 e0       	ldi	r24, 0x00	; 0
     d4c:	0e 94 9f 05 	call	0xb3e	; 0xb3e <oled_goto_line>
     d50:	e0 e0       	ldi	r30, 0x00	; 0
     d52:	fc e1       	ldi	r31, 0x1C	; 28
	volatile char* memBegin = oled_mem_begin;
	for(unsigned int i = 0; i < 1024; ++i){
		oled_data = *(memBegin+i);
     d54:	a0 e0       	ldi	r26, 0x00	; 0
     d56:	b2 e1       	ldi	r27, 0x12	; 18
     d58:	81 91       	ld	r24, Z+
     d5a:	8c 93       	st	X, r24


void oled_update_screen(){
	oled_goto_line(0);
	volatile char* memBegin = oled_mem_begin;
	for(unsigned int i = 0; i < 1024; ++i){
     d5c:	e1 15       	cp	r30, r1
     d5e:	80 e2       	ldi	r24, 0x20	; 32
     d60:	f8 07       	cpc	r31, r24
     d62:	d1 f7       	brne	.-12     	; 0xd58 <oled_update_screen+0xe>
		oled_data = *(memBegin+i);
	}
     d64:	08 95       	ret

00000d66 <runGame>:
 * Created: 25.09.2015 16:51:47
 *  Author: sverrevr
 */ 

#include "Game.h"
uint8_t runGame(GameState* gameState, Controls* controls, CAN_message* msgMtor, CAN_message* msgPoint){
     d66:	6f 92       	push	r6
     d68:	7f 92       	push	r7
     d6a:	8f 92       	push	r8
     d6c:	9f 92       	push	r9
     d6e:	af 92       	push	r10
     d70:	bf 92       	push	r11
     d72:	cf 92       	push	r12
     d74:	df 92       	push	r13
     d76:	ef 92       	push	r14
     d78:	ff 92       	push	r15
     d7a:	0f 93       	push	r16
     d7c:	1f 93       	push	r17
     d7e:	cf 93       	push	r28
     d80:	df 93       	push	r29
     d82:	cd b7       	in	r28, 0x3d	; 61
     d84:	de b7       	in	r29, 0x3e	; 62
     d86:	2f 97       	sbiw	r28, 0x0f	; 15
     d88:	0f b6       	in	r0, 0x3f	; 63
     d8a:	f8 94       	cli
     d8c:	de bf       	out	0x3e, r29	; 62
     d8e:	0f be       	out	0x3f, r0	; 63
     d90:	cd bf       	out	0x3d, r28	; 61
     d92:	4c 01       	movw	r8, r24
     d94:	7b 01       	movw	r14, r22
     d96:	8a 01       	movw	r16, r20
     d98:	39 01       	movw	r6, r18
	oled_clear();
     d9a:	0e 94 52 06 	call	0xca4	; 0xca4 <oled_clear>
	oled_print("SPILLET KJORER", 3, 0);
     d9e:	40 e0       	ldi	r20, 0x00	; 0
     da0:	63 e0       	ldi	r22, 0x03	; 3
     da2:	86 ee       	ldi	r24, 0xE6	; 230
     da4:	91 e0       	ldi	r25, 0x01	; 1
     da6:	0e 94 ce 05 	call	0xb9c	; 0xb9c <oled_print>
	char a[5];
	sprintf(a, "%i", controls->jsX.percent);
     daa:	f7 01       	movw	r30, r14
     dac:	25 85       	ldd	r18, Z+13	; 0x0d
     dae:	82 2f       	mov	r24, r18
     db0:	99 27       	eor	r25, r25
     db2:	87 fd       	sbrc	r24, 7
     db4:	90 95       	com	r25
     db6:	9f 93       	push	r25
     db8:	2f 93       	push	r18
     dba:	0f 2e       	mov	r0, r31
     dbc:	f5 ef       	ldi	r31, 0xF5	; 245
     dbe:	cf 2e       	mov	r12, r31
     dc0:	f1 e0       	ldi	r31, 0x01	; 1
     dc2:	df 2e       	mov	r13, r31
     dc4:	f0 2d       	mov	r31, r0
     dc6:	df 92       	push	r13
     dc8:	cf 92       	push	r12
     dca:	ce 01       	movw	r24, r28
     dcc:	01 96       	adiw	r24, 0x01	; 1
     dce:	5c 01       	movw	r10, r24
     dd0:	bf 92       	push	r11
     dd2:	8f 93       	push	r24
     dd4:	0e 94 de 0c 	call	0x19bc	; 0x19bc <sprintf>
	char b[5];
	sprintf(b, "%i", controls->jsY.percent);
     dd8:	f7 01       	movw	r30, r14
     dda:	22 89       	ldd	r18, Z+18	; 0x12
     ddc:	82 2f       	mov	r24, r18
     dde:	99 27       	eor	r25, r25
     de0:	87 fd       	sbrc	r24, 7
     de2:	90 95       	com	r25
     de4:	9f 93       	push	r25
     de6:	2f 93       	push	r18
     de8:	df 92       	push	r13
     dea:	cf 92       	push	r12
     dec:	6e 01       	movw	r12, r28
     dee:	f6 e0       	ldi	r31, 0x06	; 6
     df0:	cf 0e       	add	r12, r31
     df2:	d1 1c       	adc	r13, r1
     df4:	df 92       	push	r13
     df6:	cf 92       	push	r12
     df8:	0e 94 de 0c 	call	0x19bc	; 0x19bc <sprintf>
	oled_print(a, 4, 0);
     dfc:	40 e0       	ldi	r20, 0x00	; 0
     dfe:	64 e0       	ldi	r22, 0x04	; 4
     e00:	c5 01       	movw	r24, r10
     e02:	0e 94 ce 05 	call	0xb9c	; 0xb9c <oled_print>
	oled_print(b, 5, 0);
     e06:	40 e0       	ldi	r20, 0x00	; 0
     e08:	65 e0       	ldi	r22, 0x05	; 5
     e0a:	c6 01       	movw	r24, r12
     e0c:	0e 94 ce 05 	call	0xb9c	; 0xb9c <oled_print>
	
	if(msgMtor->length == 0){
     e10:	0f b6       	in	r0, 0x3f	; 63
     e12:	f8 94       	cli
     e14:	de bf       	out	0x3e, r29	; 62
     e16:	0f be       	out	0x3f, r0	; 63
     e18:	cd bf       	out	0x3d, r28	; 61
     e1a:	f8 01       	movw	r30, r16
     e1c:	82 81       	ldd	r24, Z+2	; 0x02
     e1e:	81 11       	cpse	r24, r1
     e20:	03 c0       	rjmp	.+6      	; 0xe28 <runGame+0xc2>
		msgMtor->data[CANMSG_BTNR_BYTE] &= ~(1<<CANMSG_BTNR_BIT);
     e22:	84 81       	ldd	r24, Z+4	; 0x04
     e24:	8e 7f       	andi	r24, 0xFE	; 254
     e26:	84 83       	std	Z+4, r24	; 0x04
	}
	if(controls->btnR.edge){
     e28:	f7 01       	movw	r30, r14
     e2a:	84 81       	ldd	r24, Z+4	; 0x04
     e2c:	88 23       	and	r24, r24
     e2e:	21 f0       	breq	.+8      	; 0xe38 <runGame+0xd2>
		msgMtor->data[CANMSG_BTNR_BYTE] |= 1<<CANMSG_BTNR_BIT;
     e30:	f8 01       	movw	r30, r16
     e32:	84 81       	ldd	r24, Z+4	; 0x04
     e34:	81 60       	ori	r24, 0x01	; 1
     e36:	84 83       	std	Z+4, r24	; 0x04
	}
	msgMtor->data[CANMSG_SLIDERR_BYTE] = controls->sliderR.percent;
     e38:	f7 01       	movw	r30, r14
     e3a:	82 85       	ldd	r24, Z+10	; 0x0a
     e3c:	f8 01       	movw	r30, r16
     e3e:	85 83       	std	Z+5, r24	; 0x05
	msgMtor->data[CANMSG_JSX_BYTE] = controls->jsX.percent;
     e40:	f7 01       	movw	r30, r14
     e42:	85 85       	ldd	r24, Z+13	; 0x0d
     e44:	f8 01       	movw	r30, r16
     e46:	86 83       	std	Z+6, r24	; 0x06
	msgMtor->length = CANMSG_MOTORSIGNAL_LEN;
     e48:	84 e0       	ldi	r24, 0x04	; 4
     e4a:	82 83       	std	Z+2, r24	; 0x02
	
	if(msgPoint->length && msgPoint->data[CANMSG_PACKAGESPECIFIER] == PACKAGESPECIFIER_GAMEPOINT){
     e4c:	f3 01       	movw	r30, r6
     e4e:	82 81       	ldd	r24, Z+2	; 0x02
     e50:	88 23       	and	r24, r24
     e52:	59 f0       	breq	.+22     	; 0xe6a <runGame+0x104>
     e54:	83 81       	ldd	r24, Z+3	; 0x03
     e56:	82 30       	cpi	r24, 0x02	; 2
     e58:	41 f4       	brne	.+16     	; 0xe6a <runGame+0x104>
		gameState->points++;
     e5a:	f4 01       	movw	r30, r8
     e5c:	81 81       	ldd	r24, Z+1	; 0x01
     e5e:	92 81       	ldd	r25, Z+2	; 0x02
     e60:	01 96       	adiw	r24, 0x01	; 1
     e62:	92 83       	std	Z+2, r25	; 0x02
     e64:	81 83       	std	Z+1, r24	; 0x01
		msgPoint->length = 0;
     e66:	f3 01       	movw	r30, r6
     e68:	12 82       	std	Z+2, r1	; 0x02
	}
	char c[5];
	sprintf(c, "%u", gameState->points);
     e6a:	f4 01       	movw	r30, r8
     e6c:	82 81       	ldd	r24, Z+2	; 0x02
     e6e:	8f 93       	push	r24
     e70:	81 81       	ldd	r24, Z+1	; 0x01
     e72:	8f 93       	push	r24
     e74:	88 ef       	ldi	r24, 0xF8	; 248
     e76:	91 e0       	ldi	r25, 0x01	; 1
     e78:	9f 93       	push	r25
     e7a:	8f 93       	push	r24
     e7c:	8e 01       	movw	r16, r28
     e7e:	05 5f       	subi	r16, 0xF5	; 245
     e80:	1f 4f       	sbci	r17, 0xFF	; 255
     e82:	1f 93       	push	r17
     e84:	0f 93       	push	r16
     e86:	0e 94 de 0c 	call	0x19bc	; 0x19bc <sprintf>
	oled_print(c, 6, 0);
     e8a:	40 e0       	ldi	r20, 0x00	; 0
     e8c:	66 e0       	ldi	r22, 0x06	; 6
     e8e:	c8 01       	movw	r24, r16
     e90:	0e 94 ce 05 	call	0xb9c	; 0xb9c <oled_print>
	
	return 0;
     e94:	0f 90       	pop	r0
     e96:	0f 90       	pop	r0
     e98:	0f 90       	pop	r0
     e9a:	0f 90       	pop	r0
     e9c:	0f 90       	pop	r0
     e9e:	0f 90       	pop	r0
}
     ea0:	80 e0       	ldi	r24, 0x00	; 0
     ea2:	2f 96       	adiw	r28, 0x0f	; 15
     ea4:	0f b6       	in	r0, 0x3f	; 63
     ea6:	f8 94       	cli
     ea8:	de bf       	out	0x3e, r29	; 62
     eaa:	0f be       	out	0x3f, r0	; 63
     eac:	cd bf       	out	0x3d, r28	; 61
     eae:	df 91       	pop	r29
     eb0:	cf 91       	pop	r28
     eb2:	1f 91       	pop	r17
     eb4:	0f 91       	pop	r16
     eb6:	ff 90       	pop	r15
     eb8:	ef 90       	pop	r14
     eba:	df 90       	pop	r13
     ebc:	cf 90       	pop	r12
     ebe:	bf 90       	pop	r11
     ec0:	af 90       	pop	r10
     ec2:	9f 90       	pop	r9
     ec4:	8f 90       	pop	r8
     ec6:	7f 90       	pop	r7
     ec8:	6f 90       	pop	r6
     eca:	08 95       	ret

00000ecc <main>:
#include "UI/HighScore.h"
#include "Communication_drivers/can.h"

#include <stdio.h>

int main(void){	
     ecc:	cf 93       	push	r28
     ece:	df 93       	push	r29
     ed0:	cd b7       	in	r28, 0x3d	; 61
     ed2:	de b7       	in	r29, 0x3e	; 62
     ed4:	ec 97       	sbiw	r28, 0x3c	; 60
     ed6:	0f b6       	in	r0, 0x3f	; 63
     ed8:	f8 94       	cli
     eda:	de bf       	out	0x3e, r29	; 62
     edc:	0f be       	out	0x3f, r0	; 63
     ede:	cd bf       	out	0x3d, r28	; 61
	/*Initialization*/
	USART_init();
     ee0:	0e 94 a5 03 	call	0x74a	; 0x74a <USART_init>
	SRAM_init();
     ee4:	0e 94 96 05 	call	0xb2c	; 0xb2c <SRAM_init>
	ADC_init();
     ee8:	0e 94 b4 03 	call	0x768	; 0x768 <ADC_init>
	OLED_init();
     eec:	0e 94 5a 06 	call	0xcb4	; 0xcb4 <OLED_init>
	CAN_init();
     ef0:	0e 94 b9 02 	call	0x572	; 0x572 <CAN_init>
	controllers_init();
     ef4:	0e 94 c1 03 	call	0x782	; 0x782 <controllers_init>
	
	set_bit(DDRB, PB0); //led init
     ef8:	b8 9a       	sbi	0x17, 0	; 23
	TCCR3B |= (1<<CS31); //Aktiverer timer med 1/8 prescaler, for 60Hz oppgaver.
     efa:	ea e8       	ldi	r30, 0x8A	; 138
     efc:	f0 e0       	ldi	r31, 0x00	; 0
     efe:	80 81       	ld	r24, Z
     f00:	82 60       	ori	r24, 0x02	; 2
     f02:	80 83       	st	Z, r24
	
	printf("\n\n\n");
     f04:	8b ef       	ldi	r24, 0xFB	; 251
     f06:	91 e0       	ldi	r25, 0x01	; 1
     f08:	0e 94 b1 0c 	call	0x1962	; 0x1962 <puts>


	//Tillstandsvariabler
	Controls controls;
	joystick_calibrate(&controls.jsX,&controls.jsY);
     f0c:	be 01       	movw	r22, r28
     f0e:	6e 5e       	subi	r22, 0xEE	; 238
     f10:	7f 4f       	sbci	r23, 0xFF	; 255
     f12:	ce 01       	movw	r24, r28
     f14:	0d 96       	adiw	r24, 0x0d	; 13
     f16:	0e 94 c4 03 	call	0x788	; 0x788 <joystick_calibrate>
	controls.btnR.edge = 0;
     f1a:	1d 82       	std	Y+5, r1	; 0x05
	controls.btnR.state = 0;
     f1c:	1c 82       	std	Y+4, r1	; 0x04
	
	menyNode* menu = menu_init();
     f1e:	0e 94 a0 08 	call	0x1140	; 0x1140 <menu_init>
     f22:	7c 01       	movw	r14, r24
     f24:	98 8f       	std	Y+24, r25	; 0x18
     f26:	8f 8b       	std	Y+23, r24	; 0x17
	interrupt CAN_interrupt = NOINT;
	
	unsigned short mainLoopCounter = 0;	
	
	GameState gameState;
	gameState.useJSnotSENS = 1;
     f28:	21 e0       	ldi	r18, 0x01	; 1
     f2a:	29 8f       	std	Y+25, r18	; 0x19
	gameState.points = 0;
     f2c:	1b 8e       	std	Y+27, r1	; 0x1b
     f2e:	1a 8e       	std	Y+26, r1	; 0x1a
	
	//Testing variabler	
	interrupt test;
	
	CAN_message canMsgMotor;
	canMsgMotor.length = 0;
     f30:	1e 8e       	std	Y+30, r1	; 0x1e
	canMsgMotor.data[CANMSG_PACKAGESPECIFIER] = PACKAGESPECIFIER_MOTORSIGNALS;
     f32:	1f 8e       	std	Y+31, r1	; 0x1f
	canMsgMotor.data[CANMSG_BTNR_BYTE] = 0;
     f34:	18 a2       	std	Y+32, r1	; 0x20
	canMsgMotor.data[CANMSG_SLIDERR_BYTE] = 0;
     f36:	19 a2       	std	Y+33, r1	; 0x21
	canMsgMotor.data[CANMSG_JSX_BYTE] = 0;
     f38:	1a a2       	std	Y+34, r1	; 0x22
	canMsgMotor.id = NODE2_CANID_0;
     f3a:	80 e0       	ldi	r24, 0x00	; 0
     f3c:	95 e0       	ldi	r25, 0x05	; 5
     f3e:	9d 8f       	std	Y+29, r25	; 0x1d
     f40:	8c 8f       	std	Y+28, r24	; 0x1c
	
	CAN_message canMsgGameMode;
	canMsgGameMode.length = 0;
     f42:	19 a6       	std	Y+41, r1	; 0x29
	canMsgGameMode.data[CANMSG_PACKAGESPECIFIER] = PACKAGESPECIFIER_GAMEMODE;
     f44:	2a a7       	std	Y+42, r18	; 0x2a
	canMsgGameMode.id = NODE2_CANID_HIGHPRIO_0;
     f46:	80 e0       	ldi	r24, 0x00	; 0
     f48:	91 e0       	ldi	r25, 0x01	; 1
     f4a:	98 a7       	std	Y+40, r25	; 0x28
     f4c:	8f a3       	std	Y+39, r24	; 0x27
	
	CAN_message canMsgInn;
	canMsgInn.length = 0;
     f4e:	1c aa       	std	Y+52, r1	; 0x34
	menyNode* menu = menu_init();
	menyNode* mainMenu = menu;	
	
	interrupt CAN_interrupt = NOINT;
	
	unsigned short mainLoopCounter = 0;	
     f50:	a1 2c       	mov	r10, r1
     f52:	b1 2c       	mov	r11, r1
		//Interupt håndtering
		switch(CAN_interrupt){
			case NOINT:
				break;
			case ERR:
				printf("CAN error");
     f54:	0f 2e       	mov	r0, r31
     f56:	f5 e0       	ldi	r31, 0x05	; 5
     f58:	cf 2e       	mov	r12, r31
     f5a:	f2 e0       	ldi	r31, 0x02	; 2
     f5c:	df 2e       	mov	r13, r31
     f5e:	f0 2d       	mov	r31, r0
				oled_clear();
				oled_print("Unused", 0, 0);
				break;
			case CNTRL_JS:
				//printf("ho\n");
				gameState.useJSnotSENS = 1;
     f60:	88 24       	eor	r8, r8
     f62:	83 94       	inc	r8
				if(gameState.useJSnotSENS == 1 && canMsgGameMode.data[GAMEMODE_MODE_BYTE] != GAMEMODE_JS){
					canMsgGameMode.length = GAMEMODE_MSGLEN;
					canMsgGameMode.data[GAMEMODE_MODE_BYTE] = GAMEMODE_JS;
				}
				else if(gameState.useJSnotSENS == 0 && canMsgGameMode.data[GAMEMODE_MODE_BYTE] != GAMEMODE_SENS){
					canMsgGameMode.length = GAMEMODE_MSGLEN;
     f64:	68 94       	set
     f66:	99 24       	eor	r9, r9
     f68:	91 f8       	bld	r9, 1
		}
		CAN_int_clear(CAN_interrupt);	
		
		
		//60hz tasks
		if(TCNT3 > (F_CPU/(8*60))){
     f6a:	0f 2e       	mov	r0, r31
     f6c:	f8 e8       	ldi	r31, 0x88	; 136
     f6e:	6f 2e       	mov	r6, r31
     f70:	71 2c       	mov	r7, r1
     f72:	f0 2d       	mov	r31, r0
	canMsgInn.length = 0;
	
	
    while(1){
		//Oppdater tilstandene ut ifra input
		controllers_update(&controls);
     f74:	ce 01       	movw	r24, r28
     f76:	01 96       	adiw	r24, 0x01	; 1
     f78:	0e 94 2e 05 	call	0xa5c	; 0xa5c <controllers_update>
		CAN_interrupt = CAN_int();
     f7c:	0e 94 aa 02 	call	0x554	; 0x554 <CAN_int>
     f80:	18 2f       	mov	r17, r24
		
		
		//Meny
		//Hver menytillstand kjører en funksjon, returverdien fra funksjonen er om vi skal returnere til mainMenu. 
		//Returner tilbake til hovedmenyen
		if(controls.btnL.edge){
     f82:	8a 81       	ldd	r24, Y+2	; 0x02
     f84:	88 23       	and	r24, r24
     f86:	11 f0       	breq	.+4      	; 0xf8c <main+0xc0>
			menu = mainMenu;
     f88:	f8 8e       	std	Y+24, r15	; 0x18
     f8a:	ef 8a       	std	Y+23, r14	; 0x17
		}
		switch (menu->tilstand){
     f8c:	ef 89       	ldd	r30, Y+23	; 0x17
     f8e:	f8 8d       	ldd	r31, Y+24	; 0x18
     f90:	40 81       	ld	r20, Z
     f92:	50 e0       	ldi	r21, 0x00	; 0
     f94:	47 30       	cpi	r20, 0x07	; 7
     f96:	51 05       	cpc	r21, r1
     f98:	08 f0       	brcs	.+2      	; 0xf9c <main+0xd0>
     f9a:	57 c0       	rjmp	.+174    	; 0x104a <main+0x17e>
     f9c:	fa 01       	movw	r30, r20
     f9e:	e8 5c       	subi	r30, 0xC8	; 200
     fa0:	ff 4f       	sbci	r31, 0xFF	; 255
     fa2:	0c 94 cb 0b 	jmp	0x1796	; 0x1796 <__tablejump2__>
			case MENU:
				//printf("MENU");
				menu_go(&menu, &controls);
     fa6:	be 01       	movw	r22, r28
     fa8:	6f 5f       	subi	r22, 0xFF	; 255
     faa:	7f 4f       	sbci	r23, 0xFF	; 255
     fac:	ce 01       	movw	r24, r28
     fae:	47 96       	adiw	r24, 0x17	; 23
     fb0:	0e 94 b5 09 	call	0x136a	; 0x136a <menu_go>
				if(canMsgGameMode.data[GAMEMODE_MODE_BYTE] != GAMEMODE_OFF){
     fb4:	8b a5       	ldd	r24, Y+43	; 0x2b
     fb6:	88 23       	and	r24, r24
     fb8:	09 f4       	brne	.+2      	; 0xfbc <main+0xf0>
     fba:	47 c0       	rjmp	.+142    	; 0x104a <main+0x17e>
					canMsgGameMode.length = GAMEMODE_MSGLEN;
     fbc:	99 a6       	std	Y+41, r9	; 0x29
					canMsgGameMode.data[GAMEMODE_MODE_BYTE] = GAMEMODE_OFF;	
     fbe:	1b a6       	std	Y+43, r1	; 0x2b
     fc0:	44 c0       	rjmp	.+136    	; 0x104a <main+0x17e>
				}
				break;
			case RUN_GAME:
				if(gameState.useJSnotSENS == 1 && canMsgGameMode.data[GAMEMODE_MODE_BYTE] != GAMEMODE_JS){
     fc2:	89 8d       	ldd	r24, Y+25	; 0x19
     fc4:	81 30       	cpi	r24, 0x01	; 1
     fc6:	31 f4       	brne	.+12     	; 0xfd4 <main+0x108>
     fc8:	8b a5       	ldd	r24, Y+43	; 0x2b
     fca:	81 30       	cpi	r24, 0x01	; 1
     fcc:	51 f0       	breq	.+20     	; 0xfe2 <main+0x116>
					canMsgGameMode.length = GAMEMODE_MSGLEN;
     fce:	99 a6       	std	Y+41, r9	; 0x29
					canMsgGameMode.data[GAMEMODE_MODE_BYTE] = GAMEMODE_JS;
     fd0:	8b a6       	std	Y+43, r8	; 0x2b
     fd2:	07 c0       	rjmp	.+14     	; 0xfe2 <main+0x116>
				}
				else if(gameState.useJSnotSENS == 0 && canMsgGameMode.data[GAMEMODE_MODE_BYTE] != GAMEMODE_SENS){
     fd4:	81 11       	cpse	r24, r1
     fd6:	05 c0       	rjmp	.+10     	; 0xfe2 <main+0x116>
     fd8:	8b a5       	ldd	r24, Y+43	; 0x2b
     fda:	82 30       	cpi	r24, 0x02	; 2
     fdc:	11 f0       	breq	.+4      	; 0xfe2 <main+0x116>
					canMsgGameMode.length = GAMEMODE_MSGLEN;
     fde:	99 a6       	std	Y+41, r9	; 0x29
					canMsgGameMode.data[GAMEMODE_MODE_BYTE] = GAMEMODE_SENS;
     fe0:	9b a6       	std	Y+43, r9	; 0x2b
				}
				if(runGame(&gameState,&controls,&canMsgMotor,&canMsgInn)){
     fe2:	9e 01       	movw	r18, r28
     fe4:	2e 5c       	subi	r18, 0xCE	; 206
     fe6:	3f 4f       	sbci	r19, 0xFF	; 255
     fe8:	ae 01       	movw	r20, r28
     fea:	44 5e       	subi	r20, 0xE4	; 228
     fec:	5f 4f       	sbci	r21, 0xFF	; 255
     fee:	be 01       	movw	r22, r28
     ff0:	6f 5f       	subi	r22, 0xFF	; 255
     ff2:	7f 4f       	sbci	r23, 0xFF	; 255
     ff4:	ce 01       	movw	r24, r28
     ff6:	49 96       	adiw	r24, 0x19	; 25
     ff8:	0e 94 b3 06 	call	0xd66	; 0xd66 <runGame>
     ffc:	88 23       	and	r24, r24
     ffe:	29 f1       	breq	.+74     	; 0x104a <main+0x17e>
					menu = mainMenu;
    1000:	f8 8e       	std	Y+24, r15	; 0x18
    1002:	ef 8a       	std	Y+23, r14	; 0x17
    1004:	22 c0       	rjmp	.+68     	; 0x104a <main+0x17e>
				}
				break;
			case HIGH_SCORE:
				//printf("HS");
				if(displayHighScore(&controls)){
    1006:	ce 01       	movw	r24, r28
    1008:	01 96       	adiw	r24, 0x01	; 1
    100a:	0e 94 88 08 	call	0x1110	; 0x1110 <displayHighScore>
    100e:	88 23       	and	r24, r24
    1010:	e1 f0       	breq	.+56     	; 0x104a <main+0x17e>
					menu = mainMenu;
    1012:	f8 8e       	std	Y+24, r15	; 0x18
    1014:	ef 8a       	std	Y+23, r14	; 0x17
    1016:	19 c0       	rjmp	.+50     	; 0x104a <main+0x17e>
				}
				break;
			case CALIBRATE_JS:
				//printf("Calibrate");
				if(joystick_user_calibrate(&controls)){
    1018:	ce 01       	movw	r24, r28
    101a:	01 96       	adiw	r24, 0x01	; 1
    101c:	0e 94 d8 03 	call	0x7b0	; 0x7b0 <joystick_user_calibrate>
    1020:	88 23       	and	r24, r24
    1022:	99 f0       	breq	.+38     	; 0x104a <main+0x17e>
					menu = mainMenu;
    1024:	f8 8e       	std	Y+24, r15	; 0x18
    1026:	ef 8a       	std	Y+23, r14	; 0x17
    1028:	10 c0       	rjmp	.+32     	; 0x104a <main+0x17e>
				}
				break;
			case SHOW_CAN_MSG:
				oled_clear();
    102a:	0e 94 52 06 	call	0xca4	; 0xca4 <oled_clear>
				oled_print("Unused", 0, 0);
    102e:	40 e0       	ldi	r20, 0x00	; 0
    1030:	60 e0       	ldi	r22, 0x00	; 0
    1032:	8e ef       	ldi	r24, 0xFE	; 254
    1034:	91 e0       	ldi	r25, 0x01	; 1
    1036:	0e 94 ce 05 	call	0xb9c	; 0xb9c <oled_print>
				break;
    103a:	07 c0       	rjmp	.+14     	; 0x104a <main+0x17e>
			case CNTRL_JS:
				//printf("ho\n");
				gameState.useJSnotSENS = 1;
    103c:	89 8e       	std	Y+25, r8	; 0x19
				menu = mainMenu;
    103e:	f8 8e       	std	Y+24, r15	; 0x18
    1040:	ef 8a       	std	Y+23, r14	; 0x17
				break;
    1042:	03 c0       	rjmp	.+6      	; 0x104a <main+0x17e>
			case CNTRL_SENS:		
				//printf("ho\n");
				gameState.useJSnotSENS = 0;
    1044:	19 8e       	std	Y+25, r1	; 0x19
				menu = mainMenu;
    1046:	f8 8e       	std	Y+24, r15	; 0x18
    1048:	ef 8a       	std	Y+23, r14	; 0x17
				break;
		}
		
		
		//Interupt håndtering
		switch(CAN_interrupt){
    104a:	16 30       	cpi	r17, 0x06	; 6
    104c:	59 f0       	breq	.+22     	; 0x1064 <main+0x198>
    104e:	17 30       	cpi	r17, 0x07	; 7
    1050:	79 f0       	breq	.+30     	; 0x1070 <main+0x1a4>
    1052:	11 30       	cpi	r17, 0x01	; 1
    1054:	91 f4       	brne	.+36     	; 0x107a <main+0x1ae>
			case NOINT:
				break;
			case ERR:
				printf("CAN error");
    1056:	df 92       	push	r13
    1058:	cf 92       	push	r12
    105a:	0e 94 9d 0c 	call	0x193a	; 0x193a <printf>
				break;
    105e:	0f 90       	pop	r0
    1060:	0f 90       	pop	r0
    1062:	0b c0       	rjmp	.+22     	; 0x107a <main+0x1ae>
			case RX0:
				CAN_data_receive(&canMsgInn, MCP_RXB0CTRL);
    1064:	60 e6       	ldi	r22, 0x60	; 96
    1066:	ce 01       	movw	r24, r28
    1068:	c2 96       	adiw	r24, 0x32	; 50
    106a:	0e 94 4c 02 	call	0x498	; 0x498 <CAN_data_receive>
				break;
    106e:	05 c0       	rjmp	.+10     	; 0x107a <main+0x1ae>
			case RX1:
				CAN_data_receive(&canMsgInn, MCP_RXB1CTRL);
    1070:	60 e7       	ldi	r22, 0x70	; 112
    1072:	ce 01       	movw	r24, r28
    1074:	c2 96       	adiw	r24, 0x32	; 50
    1076:	0e 94 4c 02 	call	0x498	; 0x498 <CAN_data_receive>
				break;
			default:

				break;
		}
		CAN_int_clear(CAN_interrupt);	
    107a:	81 2f       	mov	r24, r17
    107c:	0e 94 39 03 	call	0x672	; 0x672 <CAN_int_clear>
		
		
		//60hz tasks
		if(TCNT3 > (F_CPU/(8*60))){
    1080:	f3 01       	movw	r30, r6
    1082:	80 81       	ld	r24, Z
    1084:	91 81       	ldd	r25, Z+1	; 0x01
    1086:	81 30       	cpi	r24, 0x01	; 1
    1088:	98 42       	sbci	r25, 0x28	; 40
    108a:	08 f4       	brcc	.+2      	; 0x108e <main+0x1c2>
    108c:	73 cf       	rjmp	.-282    	; 0xf74 <main+0xa8>
			mainLoopCounter++;
    108e:	2f ef       	ldi	r18, 0xFF	; 255
    1090:	a2 1a       	sub	r10, r18
    1092:	b2 0a       	sbc	r11, r18
			if(!(mainLoopCounter%60)){
    1094:	95 01       	movw	r18, r10
    1096:	a9 e8       	ldi	r26, 0x89	; 137
    1098:	b8 e8       	ldi	r27, 0x88	; 136
    109a:	0e 94 d1 0b 	call	0x17a2	; 0x17a2 <__umulhisi3>
    109e:	96 95       	lsr	r25
    10a0:	87 95       	ror	r24
    10a2:	92 95       	swap	r25
    10a4:	82 95       	swap	r24
    10a6:	8f 70       	andi	r24, 0x0F	; 15
    10a8:	89 27       	eor	r24, r25
    10aa:	9f 70       	andi	r25, 0x0F	; 15
    10ac:	89 27       	eor	r24, r25
    10ae:	4c e3       	ldi	r20, 0x3C	; 60
    10b0:	48 9f       	mul	r20, r24
    10b2:	90 01       	movw	r18, r0
    10b4:	49 9f       	mul	r20, r25
    10b6:	30 0d       	add	r19, r0
    10b8:	11 24       	eor	r1, r1
    10ba:	a2 16       	cp	r10, r18
    10bc:	b3 06       	cpc	r11, r19
    10be:	21 f4       	brne	.+8      	; 0x10c8 <main+0x1fc>
				toggle_bit(PORTB, PB0);
    10c0:	98 b3       	in	r25, 0x18	; 24
    10c2:	81 e0       	ldi	r24, 0x01	; 1
    10c4:	89 27       	eor	r24, r25
    10c6:	88 bb       	out	0x18, r24	; 24
			}
			if(canMsgGameMode.length){
    10c8:	89 a5       	ldd	r24, Y+41	; 0x29
    10ca:	88 23       	and	r24, r24
    10cc:	29 f0       	breq	.+10     	; 0x10d8 <main+0x20c>
				CAN_message_send(&canMsgGameMode);
    10ce:	ce 01       	movw	r24, r28
    10d0:	87 96       	adiw	r24, 0x27	; 39
    10d2:	0e 94 3f 02 	call	0x47e	; 0x47e <CAN_message_send>
				canMsgGameMode.length = 0;
    10d6:	19 a6       	std	Y+41, r1	; 0x29
			}
			if(canMsgMotor.length){
    10d8:	8e 8d       	ldd	r24, Y+30	; 0x1e
    10da:	88 23       	and	r24, r24
    10dc:	29 f0       	breq	.+10     	; 0x10e8 <main+0x21c>
				CAN_message_send(&canMsgMotor);
    10de:	ce 01       	movw	r24, r28
    10e0:	4c 96       	adiw	r24, 0x1c	; 28
    10e2:	0e 94 3f 02 	call	0x47e	; 0x47e <CAN_message_send>
				canMsgMotor.length = 0;
    10e6:	1e 8e       	std	Y+30, r1	; 0x1e
			}
			
			oled_update_screen();
    10e8:	0e 94 a5 06 	call	0xd4a	; 0xd4a <oled_update_screen>
			TCNT3 = 0;	//Reset timer
    10ec:	10 92 89 00 	sts	0x0089, r1
    10f0:	10 92 88 00 	sts	0x0088, r1
			printf("%i \r",gameState.useJSnotSENS);
    10f4:	89 8d       	ldd	r24, Y+25	; 0x19
    10f6:	1f 92       	push	r1
    10f8:	8f 93       	push	r24
    10fa:	8f e0       	ldi	r24, 0x0F	; 15
    10fc:	92 e0       	ldi	r25, 0x02	; 2
    10fe:	9f 93       	push	r25
    1100:	8f 93       	push	r24
    1102:	0e 94 9d 0c 	call	0x193a	; 0x193a <printf>
    1106:	0f 90       	pop	r0
    1108:	0f 90       	pop	r0
    110a:	0f 90       	pop	r0
    110c:	0f 90       	pop	r0
    110e:	28 cf       	rjmp	.-432    	; 0xf60 <main+0x94>

00001110 <displayHighScore>:
 *  Author: sverrevr
 */ 

#include "HighScore.h"

uint8_t displayHighScore(Controls* control){
    1110:	cf 93       	push	r28
    1112:	df 93       	push	r29
    1114:	ec 01       	movw	r28, r24
	oled_clear();
    1116:	0e 94 52 06 	call	0xca4	; 0xca4 <oled_clear>
	oled_print("Highscore",0,0);
    111a:	40 e0       	ldi	r20, 0x00	; 0
    111c:	60 e0       	ldi	r22, 0x00	; 0
    111e:	84 e1       	ldi	r24, 0x14	; 20
    1120:	92 e0       	ldi	r25, 0x02	; 2
    1122:	0e 94 ce 05 	call	0xb9c	; 0xb9c <oled_print>
	oled_print("  Per: 1024",2,0);
    1126:	40 e0       	ldi	r20, 0x00	; 0
    1128:	62 e0       	ldi	r22, 0x02	; 2
    112a:	8e e1       	ldi	r24, 0x1E	; 30
    112c:	92 e0       	ldi	r25, 0x02	; 2
    112e:	0e 94 ce 05 	call	0xb9c	; 0xb9c <oled_print>
	
	if(control->jsX.descreet_edge < 0){
    1132:	8f 85       	ldd	r24, Y+15	; 0x0f
		return 1;
	}
	return 0;
    1134:	88 1f       	adc	r24, r24
    1136:	88 27       	eor	r24, r24
    1138:	88 1f       	adc	r24, r24
    113a:	df 91       	pop	r29
    113c:	cf 91       	pop	r28
    113e:	08 95       	ret

00001140 <menu_init>:
menyNode controllerSensor;
menyNode newGame;
menyNode highScore;
menyNode canMsg;

menyNode* menu_init(){
    1140:	cf 92       	push	r12
    1142:	df 92       	push	r13
    1144:	ef 92       	push	r14
    1146:	ff 92       	push	r15
    1148:	0f 93       	push	r16
    114a:	1f 93       	push	r17
    114c:	cf 93       	push	r28
    114e:	df 93       	push	r29
	strcpy(options.tekst,			"Options       ");
    1150:	8f e0       	ldi	r24, 0x0F	; 15
    1152:	ea e2       	ldi	r30, 0x2A	; 42
    1154:	f2 e0       	ldi	r31, 0x02	; 2
    1156:	ad ef       	ldi	r26, 0xFD	; 253
    1158:	b2 e0       	ldi	r27, 0x02	; 2
    115a:	01 90       	ld	r0, Z+
    115c:	0d 92       	st	X+, r0
    115e:	8a 95       	dec	r24
    1160:	e1 f7       	brne	.-8      	; 0x115a <menu_init+0x1a>
	strcpy(newGame.tekst,			"New Game      ");
    1162:	8f e0       	ldi	r24, 0x0F	; 15
    1164:	e9 e3       	ldi	r30, 0x39	; 57
    1166:	f2 e0       	ldi	r31, 0x02	; 2
    1168:	a9 e8       	ldi	r26, 0x89	; 137
    116a:	b3 e0       	ldi	r27, 0x03	; 3
    116c:	01 90       	ld	r0, Z+
    116e:	0d 92       	st	X+, r0
    1170:	8a 95       	dec	r24
    1172:	e1 f7       	brne	.-8      	; 0x116c <menu_init+0x2c>
	strcpy(highScore.tekst,			"High scores   ");
    1174:	8f e0       	ldi	r24, 0x0F	; 15
    1176:	e8 e4       	ldi	r30, 0x48	; 72
    1178:	f2 e0       	ldi	r31, 0x02	; 2
    117a:	a3 e4       	ldi	r26, 0x43	; 67
    117c:	b3 e0       	ldi	r27, 0x03	; 3
    117e:	01 90       	ld	r0, Z+
    1180:	0d 92       	st	X+, r0
    1182:	8a 95       	dec	r24
    1184:	e1 f7       	brne	.-8      	; 0x117e <menu_init+0x3e>
	strcpy(mainMenu.tekst,			"Main menu!    ");
    1186:	8f e0       	ldi	r24, 0x0F	; 15
    1188:	e7 e5       	ldi	r30, 0x57	; 87
    118a:	f2 e0       	ldi	r31, 0x02	; 2
    118c:	a0 e2       	ldi	r26, 0x20	; 32
    118e:	b3 e0       	ldi	r27, 0x03	; 3
    1190:	01 90       	ld	r0, Z+
    1192:	0d 92       	st	X+, r0
    1194:	8a 95       	dec	r24
    1196:	e1 f7       	brne	.-8      	; 0x1190 <menu_init+0x50>
	strcpy(reCalibrateJs.tekst,		"Re calib. js. ");
    1198:	8f e0       	ldi	r24, 0x0F	; 15
    119a:	e6 e6       	ldi	r30, 0x66	; 102
    119c:	f2 e0       	ldi	r31, 0x02	; 2
    119e:	af ec       	ldi	r26, 0xCF	; 207
    11a0:	b3 e0       	ldi	r27, 0x03	; 3
    11a2:	01 90       	ld	r0, Z+
    11a4:	0d 92       	st	X+, r0
    11a6:	8a 95       	dec	r24
    11a8:	e1 f7       	brne	.-8      	; 0x11a2 <menu_init+0x62>
	strcpy(canMsg.tekst,			"Disp. CAN msg.");
    11aa:	8f e0       	ldi	r24, 0x0F	; 15
    11ac:	e5 e7       	ldi	r30, 0x75	; 117
    11ae:	f2 e0       	ldi	r31, 0x02	; 2
    11b0:	aa ed       	ldi	r26, 0xDA	; 218
    11b2:	b2 e0       	ldi	r27, 0x02	; 2
    11b4:	01 90       	ld	r0, Z+
    11b6:	0d 92       	st	X+, r0
    11b8:	8a 95       	dec	r24
    11ba:	e1 f7       	brne	.-8      	; 0x11b4 <menu_init+0x74>
	strcpy(chooseController.tekst,	"Choose cntrlr.");
    11bc:	8f e0       	ldi	r24, 0x0F	; 15
    11be:	e4 e8       	ldi	r30, 0x84	; 132
    11c0:	f2 e0       	ldi	r31, 0x02	; 2
    11c2:	a6 e6       	ldi	r26, 0x66	; 102
    11c4:	b3 e0       	ldi	r27, 0x03	; 3
    11c6:	01 90       	ld	r0, Z+
    11c8:	0d 92       	st	X+, r0
    11ca:	8a 95       	dec	r24
    11cc:	e1 f7       	brne	.-8      	; 0x11c6 <menu_init+0x86>
	strcpy(controllerJoystick.tekst,"Joystick      ");
    11ce:	8f e0       	ldi	r24, 0x0F	; 15
    11d0:	e3 e9       	ldi	r30, 0x93	; 147
    11d2:	f2 e0       	ldi	r31, 0x02	; 2
    11d4:	a7 eb       	ldi	r26, 0xB7	; 183
    11d6:	b2 e0       	ldi	r27, 0x02	; 2
    11d8:	01 90       	ld	r0, Z+
    11da:	0d 92       	st	X+, r0
    11dc:	8a 95       	dec	r24
    11de:	e1 f7       	brne	.-8      	; 0x11d8 <menu_init+0x98>
	strcpy(controllerSensor.tekst,	"Sensor        ");
    11e0:	8f e0       	ldi	r24, 0x0F	; 15
    11e2:	e2 ea       	ldi	r30, 0xA2	; 162
    11e4:	f2 e0       	ldi	r31, 0x02	; 2
    11e6:	ac ea       	ldi	r26, 0xAC	; 172
    11e8:	b3 e0       	ldi	r27, 0x03	; 3
    11ea:	01 90       	ld	r0, Z+
    11ec:	0d 92       	st	X+, r0
    11ee:	8a 95       	dec	r24
    11f0:	e1 f7       	brne	.-8      	; 0x11ea <menu_init+0xaa>
	
	mainMenu.forelder = NULL;
    11f2:	10 92 31 03 	sts	0x0331, r1
    11f6:	10 92 30 03 	sts	0x0330, r1
	mainMenu.nBarn = 4;
    11fa:	68 94       	set
    11fc:	ff 24       	eor	r15, r15
    11fe:	f2 f8       	bld	r15, 2
    1200:	f0 92 1e 03 	sts	0x031E, r15
	mainMenu.barn[0] = &options;
    1204:	ca ef       	ldi	r28, 0xFA	; 250
    1206:	d2 e0       	ldi	r29, 0x02	; 2
    1208:	d0 93 33 03 	sts	0x0333, r29
    120c:	c0 93 32 03 	sts	0x0332, r28
	mainMenu.barn[1] = &newGame;
    1210:	46 e8       	ldi	r20, 0x86	; 134
    1212:	53 e0       	ldi	r21, 0x03	; 3
    1214:	50 93 35 03 	sts	0x0335, r21
    1218:	40 93 34 03 	sts	0x0334, r20
	mainMenu.barn[2] = &highScore;
    121c:	20 e4       	ldi	r18, 0x40	; 64
    121e:	33 e0       	ldi	r19, 0x03	; 3
    1220:	30 93 37 03 	sts	0x0337, r19
    1224:	20 93 36 03 	sts	0x0336, r18
	mainMenu.barn[3] = &canMsg;
    1228:	87 ed       	ldi	r24, 0xD7	; 215
    122a:	92 e0       	ldi	r25, 0x02	; 2
    122c:	90 93 39 03 	sts	0x0339, r25
    1230:	80 93 38 03 	sts	0x0338, r24
	mainMenu.pilNivaa = 1;
    1234:	11 e0       	ldi	r17, 0x01	; 1
    1236:	10 93 1f 03 	sts	0x031F, r17
	mainMenu.tilstand = MENU;
    123a:	ed e1       	ldi	r30, 0x1D	; 29
    123c:	f3 e0       	ldi	r31, 0x03	; 3
    123e:	10 82       	st	Z, r1
	
	options.forelder = &mainMenu;
    1240:	f0 93 0e 03 	sts	0x030E, r31
    1244:	e0 93 0d 03 	sts	0x030D, r30
	options.nBarn = 2;
    1248:	02 e0       	ldi	r16, 0x02	; 2
    124a:	00 93 fb 02 	sts	0x02FB, r16
	options.barn[0] = &reCalibrateJs;
    124e:	6c ec       	ldi	r22, 0xCC	; 204
    1250:	73 e0       	ldi	r23, 0x03	; 3
    1252:	70 93 10 03 	sts	0x0310, r23
    1256:	60 93 0f 03 	sts	0x030F, r22
	options.barn[1] = &chooseController;
    125a:	0f 2e       	mov	r0, r31
    125c:	f3 e6       	ldi	r31, 0x63	; 99
    125e:	cf 2e       	mov	r12, r31
    1260:	f3 e0       	ldi	r31, 0x03	; 3
    1262:	df 2e       	mov	r13, r31
    1264:	f0 2d       	mov	r31, r0
    1266:	d0 92 12 03 	sts	0x0312, r13
    126a:	c0 92 11 03 	sts	0x0311, r12
	options.pilNivaa = 1;
    126e:	10 93 fc 02 	sts	0x02FC, r17
	options.tilstand = MENU;
    1272:	18 82       	st	Y, r1
	
	reCalibrateJs.forelder = &options;
    1274:	d0 93 e0 03 	sts	0x03E0, r29
    1278:	c0 93 df 03 	sts	0x03DF, r28
	reCalibrateJs.nBarn = 0;
    127c:	10 92 cd 03 	sts	0x03CD, r1
	reCalibrateJs.pilNivaa = 1;
    1280:	10 93 ce 03 	sts	0x03CE, r17
	reCalibrateJs.tilstand = CALIBRATE_JS;
    1284:	0f 2e       	mov	r0, r31
    1286:	f3 e0       	ldi	r31, 0x03	; 3
    1288:	ef 2e       	mov	r14, r31
    128a:	f0 2d       	mov	r31, r0
    128c:	db 01       	movw	r26, r22
    128e:	ec 92       	st	X, r14
	
	chooseController.forelder = &options;
    1290:	d0 93 77 03 	sts	0x0377, r29
    1294:	c0 93 76 03 	sts	0x0376, r28
	chooseController.nBarn = 2;
    1298:	00 93 64 03 	sts	0x0364, r16
	chooseController.barn[0] = &controllerJoystick;
    129c:	64 eb       	ldi	r22, 0xB4	; 180
    129e:	72 e0       	ldi	r23, 0x02	; 2
    12a0:	70 93 79 03 	sts	0x0379, r23
    12a4:	60 93 78 03 	sts	0x0378, r22
	chooseController.barn[1] = &controllerSensor;
    12a8:	c9 ea       	ldi	r28, 0xA9	; 169
    12aa:	d3 e0       	ldi	r29, 0x03	; 3
    12ac:	d0 93 7b 03 	sts	0x037B, r29
    12b0:	c0 93 7a 03 	sts	0x037A, r28
	chooseController.pilNivaa = 1;
    12b4:	10 93 65 03 	sts	0x0365, r17
	chooseController.tilstand = MENU;
    12b8:	d6 01       	movw	r26, r12
    12ba:	1c 92       	st	X, r1
	
	controllerJoystick.forelder = &chooseController;
    12bc:	d0 92 c8 02 	sts	0x02C8, r13
    12c0:	c0 92 c7 02 	sts	0x02C7, r12
	controllerJoystick.nBarn = 0;
    12c4:	10 92 b5 02 	sts	0x02B5, r1
	controllerJoystick.pilNivaa = 1;
    12c8:	10 93 b6 02 	sts	0x02B6, r17
	controllerJoystick.tilstand = CNTRL_JS;
    12cc:	0f 2e       	mov	r0, r31
    12ce:	f5 e0       	ldi	r31, 0x05	; 5
    12d0:	ef 2e       	mov	r14, r31
    12d2:	f0 2d       	mov	r31, r0
    12d4:	db 01       	movw	r26, r22
    12d6:	ec 92       	st	X, r14
	
	controllerSensor.forelder = &chooseController;
    12d8:	d0 92 bd 03 	sts	0x03BD, r13
    12dc:	c0 92 bc 03 	sts	0x03BC, r12
	controllerSensor.nBarn = 0;
    12e0:	10 92 aa 03 	sts	0x03AA, r1
	controllerSensor.pilNivaa = 1;
    12e4:	10 93 ab 03 	sts	0x03AB, r17
	controllerSensor.tilstand = CNTRL_SENS;
    12e8:	66 e0       	ldi	r22, 0x06	; 6
    12ea:	68 83       	st	Y, r22
	
	newGame.forelder = &mainMenu;
    12ec:	f0 93 9a 03 	sts	0x039A, r31
    12f0:	e0 93 99 03 	sts	0x0399, r30
	newGame.nBarn = 0;
    12f4:	10 92 87 03 	sts	0x0387, r1
	newGame.pilNivaa = 1;
    12f8:	10 93 88 03 	sts	0x0388, r17
	newGame.tilstand = RUN_GAME;
    12fc:	da 01       	movw	r26, r20
    12fe:	1c 93       	st	X, r17
	
	highScore.forelder = &mainMenu;
    1300:	f0 93 54 03 	sts	0x0354, r31
    1304:	e0 93 53 03 	sts	0x0353, r30
	highScore.nBarn = 0;
    1308:	10 92 41 03 	sts	0x0341, r1
	highScore.pilNivaa = 1;
    130c:	10 93 42 03 	sts	0x0342, r17
	highScore.tilstand = HIGH_SCORE;
    1310:	d9 01       	movw	r26, r18
    1312:	0c 93       	st	X, r16
	
	canMsg.forelder = &mainMenu;
    1314:	f0 93 eb 02 	sts	0x02EB, r31
    1318:	e0 93 ea 02 	sts	0x02EA, r30
	canMsg.nBarn = 0;
    131c:	10 92 d8 02 	sts	0x02D8, r1
	canMsg.pilNivaa = 1;
    1320:	10 93 d9 02 	sts	0x02D9, r17
	canMsg.tilstand = SHOW_CAN_MSG;
    1324:	fc 01       	movw	r30, r24
    1326:	f0 82       	st	Z, r15
	
	return &mainMenu;
	
}
    1328:	8d e1       	ldi	r24, 0x1D	; 29
    132a:	93 e0       	ldi	r25, 0x03	; 3
    132c:	df 91       	pop	r29
    132e:	cf 91       	pop	r28
    1330:	1f 91       	pop	r17
    1332:	0f 91       	pop	r16
    1334:	ff 90       	pop	r15
    1336:	ef 90       	pop	r14
    1338:	df 90       	pop	r13
    133a:	cf 90       	pop	r12
    133c:	08 95       	ret

0000133e <flyttPil>:
		}
	}
}

void flyttPil(uint8_t* nivaa, JoyStick* jsY, uint8_t nBarn){
	if(jsY->descreet_edge == 0){
    133e:	fb 01       	movw	r30, r22
    1340:	23 81       	ldd	r18, Z+3	; 0x03
    1342:	22 23       	and	r18, r18
    1344:	89 f0       	breq	.+34     	; 0x1368 <flyttPil+0x2a>
		//Har ikke trykket, da skal den ikke flyttes
		return;
	}
	//Flytter utifra joystick
	(*nivaa) -= jsY->descreet;
    1346:	fc 01       	movw	r30, r24
    1348:	20 81       	ld	r18, Z
    134a:	fb 01       	movw	r30, r22
    134c:	32 81       	ldd	r19, Z+2	; 0x02
    134e:	23 1b       	sub	r18, r19
	if((*nivaa) <1) *nivaa = nBarn;			//Om vi er før første element underflower vi til siste
    1350:	19 f4       	brne	.+6      	; 0x1358 <flyttPil+0x1a>
    1352:	fc 01       	movw	r30, r24
    1354:	40 83       	st	Z, r20
    1356:	08 95       	ret
	else if((*nivaa) > nBarn) *nivaa = 1;	//etter siste overflower vi til første.
    1358:	42 17       	cp	r20, r18
    135a:	18 f0       	brcs	.+6      	; 0x1362 <flyttPil+0x24>
	if(jsY->descreet_edge == 0){
		//Har ikke trykket, da skal den ikke flyttes
		return;
	}
	//Flytter utifra joystick
	(*nivaa) -= jsY->descreet;
    135c:	fc 01       	movw	r30, r24
    135e:	20 83       	st	Z, r18
    1360:	08 95       	ret
	if((*nivaa) <1) *nivaa = nBarn;			//Om vi er før første element underflower vi til siste
	else if((*nivaa) > nBarn) *nivaa = 1;	//etter siste overflower vi til første.
    1362:	21 e0       	ldi	r18, 0x01	; 1
    1364:	fc 01       	movw	r30, r24
    1366:	20 83       	st	Z, r18
    1368:	08 95       	ret

0000136a <menu_go>:
	
	return &mainMenu;
	
}

void menu_go(menyNode** meny, Controls* control){
    136a:	ef 92       	push	r14
    136c:	ff 92       	push	r15
    136e:	0f 93       	push	r16
    1370:	1f 93       	push	r17
    1372:	cf 93       	push	r28
    1374:	df 93       	push	r29
    1376:	8c 01       	movw	r16, r24
    1378:	7b 01       	movw	r14, r22
	//Flytter pilen ihht joystick
	flyttPil(&((*meny)->pilNivaa), &control->jsY, (*meny)->nBarn);
    137a:	dc 01       	movw	r26, r24
    137c:	8d 91       	ld	r24, X+
    137e:	9c 91       	ld	r25, X
    1380:	6f 5e       	subi	r22, 0xEF	; 239
    1382:	7f 4f       	sbci	r23, 0xFF	; 255
    1384:	fc 01       	movw	r30, r24
    1386:	41 81       	ldd	r20, Z+1	; 0x01
    1388:	02 96       	adiw	r24, 0x02	; 2
    138a:	0e 94 9f 09 	call	0x133e	; 0x133e <flyttPil>
	
	oled_clear();
    138e:	0e 94 52 06 	call	0xca4	; 0xca4 <oled_clear>
	//Skriver ut tittelen
	oled_print((*meny)->tekst,0,0);
    1392:	d8 01       	movw	r26, r16
    1394:	8d 91       	ld	r24, X+
    1396:	9c 91       	ld	r25, X
    1398:	40 e0       	ldi	r20, 0x00	; 0
    139a:	60 e0       	ldi	r22, 0x00	; 0
    139c:	03 96       	adiw	r24, 0x03	; 3
    139e:	0e 94 ce 05 	call	0xb9c	; 0xb9c <oled_print>
	
	//Går gjennom alle undermenyene og skriver dem ut.
	for(int i=1; i<=(*meny)->nBarn; ++i){
    13a2:	d8 01       	movw	r26, r16
    13a4:	ed 91       	ld	r30, X+
    13a6:	fc 91       	ld	r31, X
    13a8:	21 81       	ldd	r18, Z+1	; 0x01
    13aa:	22 23       	and	r18, r18
    13ac:	71 f1       	breq	.+92     	; 0x140a <menu_go+0xa0>
    13ae:	c1 e0       	ldi	r28, 0x01	; 1
    13b0:	d0 e0       	ldi	r29, 0x00	; 0
		//skriver ut spaceinvader for å vise nivået brukeren peker på
		if((*meny)->pilNivaa == i){
    13b2:	62 81       	ldd	r22, Z+2	; 0x02
    13b4:	86 2f       	mov	r24, r22
    13b6:	90 e0       	ldi	r25, 0x00	; 0
    13b8:	8c 17       	cp	r24, r28
    13ba:	9d 07       	cpc	r25, r29
    13bc:	31 f4       	brne	.+12     	; 0x13ca <menu_go+0x60>
			oled_print("-s",i,0);
    13be:	40 e0       	ldi	r20, 0x00	; 0
    13c0:	81 eb       	ldi	r24, 0xB1	; 177
    13c2:	92 e0       	ldi	r25, 0x02	; 2
    13c4:	0e 94 ce 05 	call	0xb9c	; 0xb9c <oled_print>
    13c8:	06 c0       	rjmp	.+12     	; 0x13d6 <menu_go+0x6c>
		}
		else{
			oled_print("  ",i,0);
    13ca:	40 e0       	ldi	r20, 0x00	; 0
    13cc:	6c 2f       	mov	r22, r28
    13ce:	8e ea       	ldi	r24, 0xAE	; 174
    13d0:	92 e0       	ldi	r25, 0x02	; 2
    13d2:	0e 94 ce 05 	call	0xb9c	; 0xb9c <oled_print>
		}
		oled_print((*meny)->barn[i-1]->tekst,i,2);
    13d6:	f8 01       	movw	r30, r16
    13d8:	80 81       	ld	r24, Z
    13da:	91 81       	ldd	r25, Z+1	; 0x01
    13dc:	fe 01       	movw	r30, r28
    13de:	31 97       	sbiw	r30, 0x01	; 1
    13e0:	ee 0f       	add	r30, r30
    13e2:	ff 1f       	adc	r31, r31
    13e4:	e8 0f       	add	r30, r24
    13e6:	f9 1f       	adc	r31, r25
    13e8:	85 89       	ldd	r24, Z+21	; 0x15
    13ea:	96 89       	ldd	r25, Z+22	; 0x16
    13ec:	42 e0       	ldi	r20, 0x02	; 2
    13ee:	6c 2f       	mov	r22, r28
    13f0:	03 96       	adiw	r24, 0x03	; 3
    13f2:	0e 94 ce 05 	call	0xb9c	; 0xb9c <oled_print>
	oled_clear();
	//Skriver ut tittelen
	oled_print((*meny)->tekst,0,0);
	
	//Går gjennom alle undermenyene og skriver dem ut.
	for(int i=1; i<=(*meny)->nBarn; ++i){
    13f6:	21 96       	adiw	r28, 0x01	; 1
    13f8:	d8 01       	movw	r26, r16
    13fa:	ed 91       	ld	r30, X+
    13fc:	fc 91       	ld	r31, X
    13fe:	21 81       	ldd	r18, Z+1	; 0x01
    1400:	82 2f       	mov	r24, r18
    1402:	90 e0       	ldi	r25, 0x00	; 0
    1404:	8c 17       	cp	r24, r28
    1406:	9d 07       	cpc	r25, r29
    1408:	a4 f6       	brge	.-88     	; 0x13b2 <menu_go+0x48>
		oled_print((*meny)->barn[i-1]->tekst,i,2);
	}
	
	//Høyre/venstre på joystick endrer menynivå. 
	//gå til barnet vi peker på
	if(control->jsX.descreet_edge > 0){
    140a:	d7 01       	movw	r26, r14
    140c:	1f 96       	adiw	r26, 0x0f	; 15
    140e:	8c 91       	ld	r24, X
    1410:	18 16       	cp	r1, r24
    1412:	8c f4       	brge	.+34     	; 0x1436 <menu_go+0xcc>
		if((*meny)->pilNivaa !=0  &&((*meny)->pilNivaa <= (*meny)->nBarn)){
    1414:	82 81       	ldd	r24, Z+2	; 0x02
    1416:	88 23       	and	r24, r24
    1418:	b9 f0       	breq	.+46     	; 0x1448 <menu_go+0xde>
    141a:	28 17       	cp	r18, r24
    141c:	a8 f0       	brcs	.+42     	; 0x1448 <menu_go+0xde>
			*meny = (*meny)->barn[((*meny)->pilNivaa)-1];
    141e:	90 e0       	ldi	r25, 0x00	; 0
    1420:	01 97       	sbiw	r24, 0x01	; 1
    1422:	88 0f       	add	r24, r24
    1424:	99 1f       	adc	r25, r25
    1426:	e8 0f       	add	r30, r24
    1428:	f9 1f       	adc	r31, r25
    142a:	85 89       	ldd	r24, Z+21	; 0x15
    142c:	96 89       	ldd	r25, Z+22	; 0x16
    142e:	f8 01       	movw	r30, r16
    1430:	91 83       	std	Z+1, r25	; 0x01
    1432:	80 83       	st	Z, r24
    1434:	09 c0       	rjmp	.+18     	; 0x1448 <menu_go+0xde>
		}
	}
	//Gå til forelderen
	else if(control->jsX.descreet_edge < 0){
    1436:	88 23       	and	r24, r24
    1438:	3c f4       	brge	.+14     	; 0x1448 <menu_go+0xde>
		if((*meny)->forelder != NULL){
    143a:	83 89       	ldd	r24, Z+19	; 0x13
    143c:	94 89       	ldd	r25, Z+20	; 0x14
    143e:	00 97       	sbiw	r24, 0x00	; 0
    1440:	19 f0       	breq	.+6      	; 0x1448 <menu_go+0xde>
			*meny = (*meny)->forelder;
    1442:	d8 01       	movw	r26, r16
    1444:	8d 93       	st	X+, r24
    1446:	9c 93       	st	X, r25
		}
	}
}
    1448:	df 91       	pop	r29
    144a:	cf 91       	pop	r28
    144c:	1f 91       	pop	r17
    144e:	0f 91       	pop	r16
    1450:	ff 90       	pop	r15
    1452:	ef 90       	pop	r14
    1454:	08 95       	ret

00001456 <__subsf3>:
    1456:	50 58       	subi	r21, 0x80	; 128

00001458 <__addsf3>:
    1458:	bb 27       	eor	r27, r27
    145a:	aa 27       	eor	r26, r26
    145c:	0e d0       	rcall	.+28     	; 0x147a <__addsf3x>
    145e:	4d c1       	rjmp	.+666    	; 0x16fa <__fp_round>
    1460:	3e d1       	rcall	.+636    	; 0x16de <__fp_pscA>
    1462:	30 f0       	brcs	.+12     	; 0x1470 <__addsf3+0x18>
    1464:	43 d1       	rcall	.+646    	; 0x16ec <__fp_pscB>
    1466:	20 f0       	brcs	.+8      	; 0x1470 <__addsf3+0x18>
    1468:	31 f4       	brne	.+12     	; 0x1476 <__addsf3+0x1e>
    146a:	9f 3f       	cpi	r25, 0xFF	; 255
    146c:	11 f4       	brne	.+4      	; 0x1472 <__addsf3+0x1a>
    146e:	1e f4       	brtc	.+6      	; 0x1476 <__addsf3+0x1e>
    1470:	33 c1       	rjmp	.+614    	; 0x16d8 <__fp_nan>
    1472:	0e f4       	brtc	.+2      	; 0x1476 <__addsf3+0x1e>
    1474:	e0 95       	com	r30
    1476:	e7 fb       	bst	r30, 7
    1478:	29 c1       	rjmp	.+594    	; 0x16cc <__fp_inf>

0000147a <__addsf3x>:
    147a:	e9 2f       	mov	r30, r25
    147c:	4f d1       	rcall	.+670    	; 0x171c <__fp_split3>
    147e:	80 f3       	brcs	.-32     	; 0x1460 <__addsf3+0x8>
    1480:	ba 17       	cp	r27, r26
    1482:	62 07       	cpc	r22, r18
    1484:	73 07       	cpc	r23, r19
    1486:	84 07       	cpc	r24, r20
    1488:	95 07       	cpc	r25, r21
    148a:	18 f0       	brcs	.+6      	; 0x1492 <__addsf3x+0x18>
    148c:	71 f4       	brne	.+28     	; 0x14aa <__addsf3x+0x30>
    148e:	9e f5       	brtc	.+102    	; 0x14f6 <__addsf3x+0x7c>
    1490:	67 c1       	rjmp	.+718    	; 0x1760 <__fp_zero>
    1492:	0e f4       	brtc	.+2      	; 0x1496 <__addsf3x+0x1c>
    1494:	e0 95       	com	r30
    1496:	0b 2e       	mov	r0, r27
    1498:	ba 2f       	mov	r27, r26
    149a:	a0 2d       	mov	r26, r0
    149c:	0b 01       	movw	r0, r22
    149e:	b9 01       	movw	r22, r18
    14a0:	90 01       	movw	r18, r0
    14a2:	0c 01       	movw	r0, r24
    14a4:	ca 01       	movw	r24, r20
    14a6:	a0 01       	movw	r20, r0
    14a8:	11 24       	eor	r1, r1
    14aa:	ff 27       	eor	r31, r31
    14ac:	59 1b       	sub	r21, r25
    14ae:	99 f0       	breq	.+38     	; 0x14d6 <__addsf3x+0x5c>
    14b0:	59 3f       	cpi	r21, 0xF9	; 249
    14b2:	50 f4       	brcc	.+20     	; 0x14c8 <__addsf3x+0x4e>
    14b4:	50 3e       	cpi	r21, 0xE0	; 224
    14b6:	68 f1       	brcs	.+90     	; 0x1512 <__addsf3x+0x98>
    14b8:	1a 16       	cp	r1, r26
    14ba:	f0 40       	sbci	r31, 0x00	; 0
    14bc:	a2 2f       	mov	r26, r18
    14be:	23 2f       	mov	r18, r19
    14c0:	34 2f       	mov	r19, r20
    14c2:	44 27       	eor	r20, r20
    14c4:	58 5f       	subi	r21, 0xF8	; 248
    14c6:	f3 cf       	rjmp	.-26     	; 0x14ae <__addsf3x+0x34>
    14c8:	46 95       	lsr	r20
    14ca:	37 95       	ror	r19
    14cc:	27 95       	ror	r18
    14ce:	a7 95       	ror	r26
    14d0:	f0 40       	sbci	r31, 0x00	; 0
    14d2:	53 95       	inc	r21
    14d4:	c9 f7       	brne	.-14     	; 0x14c8 <__addsf3x+0x4e>
    14d6:	7e f4       	brtc	.+30     	; 0x14f6 <__addsf3x+0x7c>
    14d8:	1f 16       	cp	r1, r31
    14da:	ba 0b       	sbc	r27, r26
    14dc:	62 0b       	sbc	r22, r18
    14de:	73 0b       	sbc	r23, r19
    14e0:	84 0b       	sbc	r24, r20
    14e2:	ba f0       	brmi	.+46     	; 0x1512 <__addsf3x+0x98>
    14e4:	91 50       	subi	r25, 0x01	; 1
    14e6:	a1 f0       	breq	.+40     	; 0x1510 <__addsf3x+0x96>
    14e8:	ff 0f       	add	r31, r31
    14ea:	bb 1f       	adc	r27, r27
    14ec:	66 1f       	adc	r22, r22
    14ee:	77 1f       	adc	r23, r23
    14f0:	88 1f       	adc	r24, r24
    14f2:	c2 f7       	brpl	.-16     	; 0x14e4 <__addsf3x+0x6a>
    14f4:	0e c0       	rjmp	.+28     	; 0x1512 <__addsf3x+0x98>
    14f6:	ba 0f       	add	r27, r26
    14f8:	62 1f       	adc	r22, r18
    14fa:	73 1f       	adc	r23, r19
    14fc:	84 1f       	adc	r24, r20
    14fe:	48 f4       	brcc	.+18     	; 0x1512 <__addsf3x+0x98>
    1500:	87 95       	ror	r24
    1502:	77 95       	ror	r23
    1504:	67 95       	ror	r22
    1506:	b7 95       	ror	r27
    1508:	f7 95       	ror	r31
    150a:	9e 3f       	cpi	r25, 0xFE	; 254
    150c:	08 f0       	brcs	.+2      	; 0x1510 <__addsf3x+0x96>
    150e:	b3 cf       	rjmp	.-154    	; 0x1476 <__addsf3+0x1e>
    1510:	93 95       	inc	r25
    1512:	88 0f       	add	r24, r24
    1514:	08 f0       	brcs	.+2      	; 0x1518 <__addsf3x+0x9e>
    1516:	99 27       	eor	r25, r25
    1518:	ee 0f       	add	r30, r30
    151a:	97 95       	ror	r25
    151c:	87 95       	ror	r24
    151e:	08 95       	ret

00001520 <__divsf3>:
    1520:	0c d0       	rcall	.+24     	; 0x153a <__divsf3x>
    1522:	eb c0       	rjmp	.+470    	; 0x16fa <__fp_round>
    1524:	e3 d0       	rcall	.+454    	; 0x16ec <__fp_pscB>
    1526:	40 f0       	brcs	.+16     	; 0x1538 <__divsf3+0x18>
    1528:	da d0       	rcall	.+436    	; 0x16de <__fp_pscA>
    152a:	30 f0       	brcs	.+12     	; 0x1538 <__divsf3+0x18>
    152c:	21 f4       	brne	.+8      	; 0x1536 <__divsf3+0x16>
    152e:	5f 3f       	cpi	r21, 0xFF	; 255
    1530:	19 f0       	breq	.+6      	; 0x1538 <__divsf3+0x18>
    1532:	cc c0       	rjmp	.+408    	; 0x16cc <__fp_inf>
    1534:	51 11       	cpse	r21, r1
    1536:	15 c1       	rjmp	.+554    	; 0x1762 <__fp_szero>
    1538:	cf c0       	rjmp	.+414    	; 0x16d8 <__fp_nan>

0000153a <__divsf3x>:
    153a:	f0 d0       	rcall	.+480    	; 0x171c <__fp_split3>
    153c:	98 f3       	brcs	.-26     	; 0x1524 <__divsf3+0x4>

0000153e <__divsf3_pse>:
    153e:	99 23       	and	r25, r25
    1540:	c9 f3       	breq	.-14     	; 0x1534 <__divsf3+0x14>
    1542:	55 23       	and	r21, r21
    1544:	b1 f3       	breq	.-20     	; 0x1532 <__divsf3+0x12>
    1546:	95 1b       	sub	r25, r21
    1548:	55 0b       	sbc	r21, r21
    154a:	bb 27       	eor	r27, r27
    154c:	aa 27       	eor	r26, r26
    154e:	62 17       	cp	r22, r18
    1550:	73 07       	cpc	r23, r19
    1552:	84 07       	cpc	r24, r20
    1554:	38 f0       	brcs	.+14     	; 0x1564 <__divsf3_pse+0x26>
    1556:	9f 5f       	subi	r25, 0xFF	; 255
    1558:	5f 4f       	sbci	r21, 0xFF	; 255
    155a:	22 0f       	add	r18, r18
    155c:	33 1f       	adc	r19, r19
    155e:	44 1f       	adc	r20, r20
    1560:	aa 1f       	adc	r26, r26
    1562:	a9 f3       	breq	.-22     	; 0x154e <__divsf3_pse+0x10>
    1564:	33 d0       	rcall	.+102    	; 0x15cc <__divsf3_pse+0x8e>
    1566:	0e 2e       	mov	r0, r30
    1568:	3a f0       	brmi	.+14     	; 0x1578 <__divsf3_pse+0x3a>
    156a:	e0 e8       	ldi	r30, 0x80	; 128
    156c:	30 d0       	rcall	.+96     	; 0x15ce <__divsf3_pse+0x90>
    156e:	91 50       	subi	r25, 0x01	; 1
    1570:	50 40       	sbci	r21, 0x00	; 0
    1572:	e6 95       	lsr	r30
    1574:	00 1c       	adc	r0, r0
    1576:	ca f7       	brpl	.-14     	; 0x156a <__divsf3_pse+0x2c>
    1578:	29 d0       	rcall	.+82     	; 0x15cc <__divsf3_pse+0x8e>
    157a:	fe 2f       	mov	r31, r30
    157c:	27 d0       	rcall	.+78     	; 0x15cc <__divsf3_pse+0x8e>
    157e:	66 0f       	add	r22, r22
    1580:	77 1f       	adc	r23, r23
    1582:	88 1f       	adc	r24, r24
    1584:	bb 1f       	adc	r27, r27
    1586:	26 17       	cp	r18, r22
    1588:	37 07       	cpc	r19, r23
    158a:	48 07       	cpc	r20, r24
    158c:	ab 07       	cpc	r26, r27
    158e:	b0 e8       	ldi	r27, 0x80	; 128
    1590:	09 f0       	breq	.+2      	; 0x1594 <__divsf3_pse+0x56>
    1592:	bb 0b       	sbc	r27, r27
    1594:	80 2d       	mov	r24, r0
    1596:	bf 01       	movw	r22, r30
    1598:	ff 27       	eor	r31, r31
    159a:	93 58       	subi	r25, 0x83	; 131
    159c:	5f 4f       	sbci	r21, 0xFF	; 255
    159e:	2a f0       	brmi	.+10     	; 0x15aa <__divsf3_pse+0x6c>
    15a0:	9e 3f       	cpi	r25, 0xFE	; 254
    15a2:	51 05       	cpc	r21, r1
    15a4:	68 f0       	brcs	.+26     	; 0x15c0 <__divsf3_pse+0x82>
    15a6:	92 c0       	rjmp	.+292    	; 0x16cc <__fp_inf>
    15a8:	dc c0       	rjmp	.+440    	; 0x1762 <__fp_szero>
    15aa:	5f 3f       	cpi	r21, 0xFF	; 255
    15ac:	ec f3       	brlt	.-6      	; 0x15a8 <__divsf3_pse+0x6a>
    15ae:	98 3e       	cpi	r25, 0xE8	; 232
    15b0:	dc f3       	brlt	.-10     	; 0x15a8 <__divsf3_pse+0x6a>
    15b2:	86 95       	lsr	r24
    15b4:	77 95       	ror	r23
    15b6:	67 95       	ror	r22
    15b8:	b7 95       	ror	r27
    15ba:	f7 95       	ror	r31
    15bc:	9f 5f       	subi	r25, 0xFF	; 255
    15be:	c9 f7       	brne	.-14     	; 0x15b2 <__divsf3_pse+0x74>
    15c0:	88 0f       	add	r24, r24
    15c2:	91 1d       	adc	r25, r1
    15c4:	96 95       	lsr	r25
    15c6:	87 95       	ror	r24
    15c8:	97 f9       	bld	r25, 7
    15ca:	08 95       	ret
    15cc:	e1 e0       	ldi	r30, 0x01	; 1
    15ce:	66 0f       	add	r22, r22
    15d0:	77 1f       	adc	r23, r23
    15d2:	88 1f       	adc	r24, r24
    15d4:	bb 1f       	adc	r27, r27
    15d6:	62 17       	cp	r22, r18
    15d8:	73 07       	cpc	r23, r19
    15da:	84 07       	cpc	r24, r20
    15dc:	ba 07       	cpc	r27, r26
    15de:	20 f0       	brcs	.+8      	; 0x15e8 <__divsf3_pse+0xaa>
    15e0:	62 1b       	sub	r22, r18
    15e2:	73 0b       	sbc	r23, r19
    15e4:	84 0b       	sbc	r24, r20
    15e6:	ba 0b       	sbc	r27, r26
    15e8:	ee 1f       	adc	r30, r30
    15ea:	88 f7       	brcc	.-30     	; 0x15ce <__divsf3_pse+0x90>
    15ec:	e0 95       	com	r30
    15ee:	08 95       	ret

000015f0 <__fixsfsi>:
    15f0:	04 d0       	rcall	.+8      	; 0x15fa <__fixunssfsi>
    15f2:	68 94       	set
    15f4:	b1 11       	cpse	r27, r1
    15f6:	b5 c0       	rjmp	.+362    	; 0x1762 <__fp_szero>
    15f8:	08 95       	ret

000015fa <__fixunssfsi>:
    15fa:	98 d0       	rcall	.+304    	; 0x172c <__fp_splitA>
    15fc:	88 f0       	brcs	.+34     	; 0x1620 <__fixunssfsi+0x26>
    15fe:	9f 57       	subi	r25, 0x7F	; 127
    1600:	90 f0       	brcs	.+36     	; 0x1626 <__fixunssfsi+0x2c>
    1602:	b9 2f       	mov	r27, r25
    1604:	99 27       	eor	r25, r25
    1606:	b7 51       	subi	r27, 0x17	; 23
    1608:	a0 f0       	brcs	.+40     	; 0x1632 <__fixunssfsi+0x38>
    160a:	d1 f0       	breq	.+52     	; 0x1640 <__fixunssfsi+0x46>
    160c:	66 0f       	add	r22, r22
    160e:	77 1f       	adc	r23, r23
    1610:	88 1f       	adc	r24, r24
    1612:	99 1f       	adc	r25, r25
    1614:	1a f0       	brmi	.+6      	; 0x161c <__fixunssfsi+0x22>
    1616:	ba 95       	dec	r27
    1618:	c9 f7       	brne	.-14     	; 0x160c <__fixunssfsi+0x12>
    161a:	12 c0       	rjmp	.+36     	; 0x1640 <__fixunssfsi+0x46>
    161c:	b1 30       	cpi	r27, 0x01	; 1
    161e:	81 f0       	breq	.+32     	; 0x1640 <__fixunssfsi+0x46>
    1620:	9f d0       	rcall	.+318    	; 0x1760 <__fp_zero>
    1622:	b1 e0       	ldi	r27, 0x01	; 1
    1624:	08 95       	ret
    1626:	9c c0       	rjmp	.+312    	; 0x1760 <__fp_zero>
    1628:	67 2f       	mov	r22, r23
    162a:	78 2f       	mov	r23, r24
    162c:	88 27       	eor	r24, r24
    162e:	b8 5f       	subi	r27, 0xF8	; 248
    1630:	39 f0       	breq	.+14     	; 0x1640 <__fixunssfsi+0x46>
    1632:	b9 3f       	cpi	r27, 0xF9	; 249
    1634:	cc f3       	brlt	.-14     	; 0x1628 <__fixunssfsi+0x2e>
    1636:	86 95       	lsr	r24
    1638:	77 95       	ror	r23
    163a:	67 95       	ror	r22
    163c:	b3 95       	inc	r27
    163e:	d9 f7       	brne	.-10     	; 0x1636 <__fixunssfsi+0x3c>
    1640:	3e f4       	brtc	.+14     	; 0x1650 <__fixunssfsi+0x56>
    1642:	90 95       	com	r25
    1644:	80 95       	com	r24
    1646:	70 95       	com	r23
    1648:	61 95       	neg	r22
    164a:	7f 4f       	sbci	r23, 0xFF	; 255
    164c:	8f 4f       	sbci	r24, 0xFF	; 255
    164e:	9f 4f       	sbci	r25, 0xFF	; 255
    1650:	08 95       	ret

00001652 <__floatunsisf>:
    1652:	e8 94       	clt
    1654:	09 c0       	rjmp	.+18     	; 0x1668 <__floatsisf+0x12>

00001656 <__floatsisf>:
    1656:	97 fb       	bst	r25, 7
    1658:	3e f4       	brtc	.+14     	; 0x1668 <__floatsisf+0x12>
    165a:	90 95       	com	r25
    165c:	80 95       	com	r24
    165e:	70 95       	com	r23
    1660:	61 95       	neg	r22
    1662:	7f 4f       	sbci	r23, 0xFF	; 255
    1664:	8f 4f       	sbci	r24, 0xFF	; 255
    1666:	9f 4f       	sbci	r25, 0xFF	; 255
    1668:	99 23       	and	r25, r25
    166a:	a9 f0       	breq	.+42     	; 0x1696 <__floatsisf+0x40>
    166c:	f9 2f       	mov	r31, r25
    166e:	96 e9       	ldi	r25, 0x96	; 150
    1670:	bb 27       	eor	r27, r27
    1672:	93 95       	inc	r25
    1674:	f6 95       	lsr	r31
    1676:	87 95       	ror	r24
    1678:	77 95       	ror	r23
    167a:	67 95       	ror	r22
    167c:	b7 95       	ror	r27
    167e:	f1 11       	cpse	r31, r1
    1680:	f8 cf       	rjmp	.-16     	; 0x1672 <__floatsisf+0x1c>
    1682:	fa f4       	brpl	.+62     	; 0x16c2 <__floatsisf+0x6c>
    1684:	bb 0f       	add	r27, r27
    1686:	11 f4       	brne	.+4      	; 0x168c <__floatsisf+0x36>
    1688:	60 ff       	sbrs	r22, 0
    168a:	1b c0       	rjmp	.+54     	; 0x16c2 <__floatsisf+0x6c>
    168c:	6f 5f       	subi	r22, 0xFF	; 255
    168e:	7f 4f       	sbci	r23, 0xFF	; 255
    1690:	8f 4f       	sbci	r24, 0xFF	; 255
    1692:	9f 4f       	sbci	r25, 0xFF	; 255
    1694:	16 c0       	rjmp	.+44     	; 0x16c2 <__floatsisf+0x6c>
    1696:	88 23       	and	r24, r24
    1698:	11 f0       	breq	.+4      	; 0x169e <__floatsisf+0x48>
    169a:	96 e9       	ldi	r25, 0x96	; 150
    169c:	11 c0       	rjmp	.+34     	; 0x16c0 <__floatsisf+0x6a>
    169e:	77 23       	and	r23, r23
    16a0:	21 f0       	breq	.+8      	; 0x16aa <__floatsisf+0x54>
    16a2:	9e e8       	ldi	r25, 0x8E	; 142
    16a4:	87 2f       	mov	r24, r23
    16a6:	76 2f       	mov	r23, r22
    16a8:	05 c0       	rjmp	.+10     	; 0x16b4 <__floatsisf+0x5e>
    16aa:	66 23       	and	r22, r22
    16ac:	71 f0       	breq	.+28     	; 0x16ca <__floatsisf+0x74>
    16ae:	96 e8       	ldi	r25, 0x86	; 134
    16b0:	86 2f       	mov	r24, r22
    16b2:	70 e0       	ldi	r23, 0x00	; 0
    16b4:	60 e0       	ldi	r22, 0x00	; 0
    16b6:	2a f0       	brmi	.+10     	; 0x16c2 <__floatsisf+0x6c>
    16b8:	9a 95       	dec	r25
    16ba:	66 0f       	add	r22, r22
    16bc:	77 1f       	adc	r23, r23
    16be:	88 1f       	adc	r24, r24
    16c0:	da f7       	brpl	.-10     	; 0x16b8 <__floatsisf+0x62>
    16c2:	88 0f       	add	r24, r24
    16c4:	96 95       	lsr	r25
    16c6:	87 95       	ror	r24
    16c8:	97 f9       	bld	r25, 7
    16ca:	08 95       	ret

000016cc <__fp_inf>:
    16cc:	97 f9       	bld	r25, 7
    16ce:	9f 67       	ori	r25, 0x7F	; 127
    16d0:	80 e8       	ldi	r24, 0x80	; 128
    16d2:	70 e0       	ldi	r23, 0x00	; 0
    16d4:	60 e0       	ldi	r22, 0x00	; 0
    16d6:	08 95       	ret

000016d8 <__fp_nan>:
    16d8:	9f ef       	ldi	r25, 0xFF	; 255
    16da:	80 ec       	ldi	r24, 0xC0	; 192
    16dc:	08 95       	ret

000016de <__fp_pscA>:
    16de:	00 24       	eor	r0, r0
    16e0:	0a 94       	dec	r0
    16e2:	16 16       	cp	r1, r22
    16e4:	17 06       	cpc	r1, r23
    16e6:	18 06       	cpc	r1, r24
    16e8:	09 06       	cpc	r0, r25
    16ea:	08 95       	ret

000016ec <__fp_pscB>:
    16ec:	00 24       	eor	r0, r0
    16ee:	0a 94       	dec	r0
    16f0:	12 16       	cp	r1, r18
    16f2:	13 06       	cpc	r1, r19
    16f4:	14 06       	cpc	r1, r20
    16f6:	05 06       	cpc	r0, r21
    16f8:	08 95       	ret

000016fa <__fp_round>:
    16fa:	09 2e       	mov	r0, r25
    16fc:	03 94       	inc	r0
    16fe:	00 0c       	add	r0, r0
    1700:	11 f4       	brne	.+4      	; 0x1706 <__fp_round+0xc>
    1702:	88 23       	and	r24, r24
    1704:	52 f0       	brmi	.+20     	; 0x171a <__fp_round+0x20>
    1706:	bb 0f       	add	r27, r27
    1708:	40 f4       	brcc	.+16     	; 0x171a <__fp_round+0x20>
    170a:	bf 2b       	or	r27, r31
    170c:	11 f4       	brne	.+4      	; 0x1712 <__fp_round+0x18>
    170e:	60 ff       	sbrs	r22, 0
    1710:	04 c0       	rjmp	.+8      	; 0x171a <__fp_round+0x20>
    1712:	6f 5f       	subi	r22, 0xFF	; 255
    1714:	7f 4f       	sbci	r23, 0xFF	; 255
    1716:	8f 4f       	sbci	r24, 0xFF	; 255
    1718:	9f 4f       	sbci	r25, 0xFF	; 255
    171a:	08 95       	ret

0000171c <__fp_split3>:
    171c:	57 fd       	sbrc	r21, 7
    171e:	90 58       	subi	r25, 0x80	; 128
    1720:	44 0f       	add	r20, r20
    1722:	55 1f       	adc	r21, r21
    1724:	59 f0       	breq	.+22     	; 0x173c <__fp_splitA+0x10>
    1726:	5f 3f       	cpi	r21, 0xFF	; 255
    1728:	71 f0       	breq	.+28     	; 0x1746 <__fp_splitA+0x1a>
    172a:	47 95       	ror	r20

0000172c <__fp_splitA>:
    172c:	88 0f       	add	r24, r24
    172e:	97 fb       	bst	r25, 7
    1730:	99 1f       	adc	r25, r25
    1732:	61 f0       	breq	.+24     	; 0x174c <__fp_splitA+0x20>
    1734:	9f 3f       	cpi	r25, 0xFF	; 255
    1736:	79 f0       	breq	.+30     	; 0x1756 <__fp_splitA+0x2a>
    1738:	87 95       	ror	r24
    173a:	08 95       	ret
    173c:	12 16       	cp	r1, r18
    173e:	13 06       	cpc	r1, r19
    1740:	14 06       	cpc	r1, r20
    1742:	55 1f       	adc	r21, r21
    1744:	f2 cf       	rjmp	.-28     	; 0x172a <__fp_split3+0xe>
    1746:	46 95       	lsr	r20
    1748:	f1 df       	rcall	.-30     	; 0x172c <__fp_splitA>
    174a:	08 c0       	rjmp	.+16     	; 0x175c <__fp_splitA+0x30>
    174c:	16 16       	cp	r1, r22
    174e:	17 06       	cpc	r1, r23
    1750:	18 06       	cpc	r1, r24
    1752:	99 1f       	adc	r25, r25
    1754:	f1 cf       	rjmp	.-30     	; 0x1738 <__fp_splitA+0xc>
    1756:	86 95       	lsr	r24
    1758:	71 05       	cpc	r23, r1
    175a:	61 05       	cpc	r22, r1
    175c:	08 94       	sec
    175e:	08 95       	ret

00001760 <__fp_zero>:
    1760:	e8 94       	clt

00001762 <__fp_szero>:
    1762:	bb 27       	eor	r27, r27
    1764:	66 27       	eor	r22, r22
    1766:	77 27       	eor	r23, r23
    1768:	cb 01       	movw	r24, r22
    176a:	97 f9       	bld	r25, 7
    176c:	08 95       	ret

0000176e <__divmodhi4>:
    176e:	97 fb       	bst	r25, 7
    1770:	07 2e       	mov	r0, r23
    1772:	16 f4       	brtc	.+4      	; 0x1778 <__divmodhi4+0xa>
    1774:	00 94       	com	r0
    1776:	07 d0       	rcall	.+14     	; 0x1786 <__divmodhi4_neg1>
    1778:	77 fd       	sbrc	r23, 7
    177a:	09 d0       	rcall	.+18     	; 0x178e <__divmodhi4_neg2>
    177c:	0e 94 e0 0b 	call	0x17c0	; 0x17c0 <__udivmodhi4>
    1780:	07 fc       	sbrc	r0, 7
    1782:	05 d0       	rcall	.+10     	; 0x178e <__divmodhi4_neg2>
    1784:	3e f4       	brtc	.+14     	; 0x1794 <__divmodhi4_exit>

00001786 <__divmodhi4_neg1>:
    1786:	90 95       	com	r25
    1788:	81 95       	neg	r24
    178a:	9f 4f       	sbci	r25, 0xFF	; 255
    178c:	08 95       	ret

0000178e <__divmodhi4_neg2>:
    178e:	70 95       	com	r23
    1790:	61 95       	neg	r22
    1792:	7f 4f       	sbci	r23, 0xFF	; 255

00001794 <__divmodhi4_exit>:
    1794:	08 95       	ret

00001796 <__tablejump2__>:
    1796:	ee 0f       	add	r30, r30
    1798:	ff 1f       	adc	r31, r31

0000179a <__tablejump__>:
    179a:	05 90       	lpm	r0, Z+
    179c:	f4 91       	lpm	r31, Z
    179e:	e0 2d       	mov	r30, r0
    17a0:	09 94       	ijmp

000017a2 <__umulhisi3>:
    17a2:	a2 9f       	mul	r26, r18
    17a4:	b0 01       	movw	r22, r0
    17a6:	b3 9f       	mul	r27, r19
    17a8:	c0 01       	movw	r24, r0
    17aa:	a3 9f       	mul	r26, r19
    17ac:	70 0d       	add	r23, r0
    17ae:	81 1d       	adc	r24, r1
    17b0:	11 24       	eor	r1, r1
    17b2:	91 1d       	adc	r25, r1
    17b4:	b2 9f       	mul	r27, r18
    17b6:	70 0d       	add	r23, r0
    17b8:	81 1d       	adc	r24, r1
    17ba:	11 24       	eor	r1, r1
    17bc:	91 1d       	adc	r25, r1
    17be:	08 95       	ret

000017c0 <__udivmodhi4>:
    17c0:	aa 1b       	sub	r26, r26
    17c2:	bb 1b       	sub	r27, r27
    17c4:	51 e1       	ldi	r21, 0x11	; 17
    17c6:	07 c0       	rjmp	.+14     	; 0x17d6 <__udivmodhi4_ep>

000017c8 <__udivmodhi4_loop>:
    17c8:	aa 1f       	adc	r26, r26
    17ca:	bb 1f       	adc	r27, r27
    17cc:	a6 17       	cp	r26, r22
    17ce:	b7 07       	cpc	r27, r23
    17d0:	10 f0       	brcs	.+4      	; 0x17d6 <__udivmodhi4_ep>
    17d2:	a6 1b       	sub	r26, r22
    17d4:	b7 0b       	sbc	r27, r23

000017d6 <__udivmodhi4_ep>:
    17d6:	88 1f       	adc	r24, r24
    17d8:	99 1f       	adc	r25, r25
    17da:	5a 95       	dec	r21
    17dc:	a9 f7       	brne	.-22     	; 0x17c8 <__udivmodhi4_loop>
    17de:	80 95       	com	r24
    17e0:	90 95       	com	r25
    17e2:	bc 01       	movw	r22, r24
    17e4:	cd 01       	movw	r24, r26
    17e6:	08 95       	ret

000017e8 <do_rand>:
    17e8:	8f 92       	push	r8
    17ea:	9f 92       	push	r9
    17ec:	af 92       	push	r10
    17ee:	bf 92       	push	r11
    17f0:	cf 92       	push	r12
    17f2:	df 92       	push	r13
    17f4:	ef 92       	push	r14
    17f6:	ff 92       	push	r15
    17f8:	cf 93       	push	r28
    17fa:	df 93       	push	r29
    17fc:	ec 01       	movw	r28, r24
    17fe:	68 81       	ld	r22, Y
    1800:	79 81       	ldd	r23, Y+1	; 0x01
    1802:	8a 81       	ldd	r24, Y+2	; 0x02
    1804:	9b 81       	ldd	r25, Y+3	; 0x03
    1806:	61 15       	cp	r22, r1
    1808:	71 05       	cpc	r23, r1
    180a:	81 05       	cpc	r24, r1
    180c:	91 05       	cpc	r25, r1
    180e:	21 f4       	brne	.+8      	; 0x1818 <do_rand+0x30>
    1810:	64 e2       	ldi	r22, 0x24	; 36
    1812:	79 ed       	ldi	r23, 0xD9	; 217
    1814:	8b e5       	ldi	r24, 0x5B	; 91
    1816:	97 e0       	ldi	r25, 0x07	; 7
    1818:	2d e1       	ldi	r18, 0x1D	; 29
    181a:	33 ef       	ldi	r19, 0xF3	; 243
    181c:	41 e0       	ldi	r20, 0x01	; 1
    181e:	50 e0       	ldi	r21, 0x00	; 0
    1820:	0e 94 c2 10 	call	0x2184	; 0x2184 <__divmodsi4>
    1824:	49 01       	movw	r8, r18
    1826:	5a 01       	movw	r10, r20
    1828:	9b 01       	movw	r18, r22
    182a:	ac 01       	movw	r20, r24
    182c:	a7 ea       	ldi	r26, 0xA7	; 167
    182e:	b1 e4       	ldi	r27, 0x41	; 65
    1830:	0e 94 e1 10 	call	0x21c2	; 0x21c2 <__muluhisi3>
    1834:	6b 01       	movw	r12, r22
    1836:	7c 01       	movw	r14, r24
    1838:	ac ee       	ldi	r26, 0xEC	; 236
    183a:	b4 ef       	ldi	r27, 0xF4	; 244
    183c:	a5 01       	movw	r20, r10
    183e:	94 01       	movw	r18, r8
    1840:	0e 94 ef 10 	call	0x21de	; 0x21de <__mulohisi3>
    1844:	c6 0e       	add	r12, r22
    1846:	d7 1e       	adc	r13, r23
    1848:	e8 1e       	adc	r14, r24
    184a:	f9 1e       	adc	r15, r25
    184c:	f7 fe       	sbrs	r15, 7
    184e:	06 c0       	rjmp	.+12     	; 0x185c <do_rand+0x74>
    1850:	81 e0       	ldi	r24, 0x01	; 1
    1852:	c8 1a       	sub	r12, r24
    1854:	d1 08       	sbc	r13, r1
    1856:	e1 08       	sbc	r14, r1
    1858:	80 e8       	ldi	r24, 0x80	; 128
    185a:	f8 0a       	sbc	r15, r24
    185c:	c8 82       	st	Y, r12
    185e:	d9 82       	std	Y+1, r13	; 0x01
    1860:	ea 82       	std	Y+2, r14	; 0x02
    1862:	fb 82       	std	Y+3, r15	; 0x03
    1864:	c6 01       	movw	r24, r12
    1866:	9f 77       	andi	r25, 0x7F	; 127
    1868:	df 91       	pop	r29
    186a:	cf 91       	pop	r28
    186c:	ff 90       	pop	r15
    186e:	ef 90       	pop	r14
    1870:	df 90       	pop	r13
    1872:	cf 90       	pop	r12
    1874:	bf 90       	pop	r11
    1876:	af 90       	pop	r10
    1878:	9f 90       	pop	r9
    187a:	8f 90       	pop	r8
    187c:	08 95       	ret

0000187e <rand_r>:
    187e:	0e 94 f4 0b 	call	0x17e8	; 0x17e8 <do_rand>
    1882:	08 95       	ret

00001884 <rand>:
    1884:	80 e0       	ldi	r24, 0x00	; 0
    1886:	91 e0       	ldi	r25, 0x01	; 1
    1888:	0e 94 f4 0b 	call	0x17e8	; 0x17e8 <do_rand>
    188c:	08 95       	ret

0000188e <srand>:
    188e:	a0 e0       	ldi	r26, 0x00	; 0
    1890:	b0 e0       	ldi	r27, 0x00	; 0
    1892:	80 93 00 01 	sts	0x0100, r24
    1896:	90 93 01 01 	sts	0x0101, r25
    189a:	a0 93 02 01 	sts	0x0102, r26
    189e:	b0 93 03 01 	sts	0x0103, r27
    18a2:	08 95       	ret

000018a4 <fdevopen>:
    18a4:	0f 93       	push	r16
    18a6:	1f 93       	push	r17
    18a8:	cf 93       	push	r28
    18aa:	df 93       	push	r29
    18ac:	ec 01       	movw	r28, r24
    18ae:	8b 01       	movw	r16, r22
    18b0:	00 97       	sbiw	r24, 0x00	; 0
    18b2:	31 f4       	brne	.+12     	; 0x18c0 <fdevopen+0x1c>
    18b4:	61 15       	cp	r22, r1
    18b6:	71 05       	cpc	r23, r1
    18b8:	19 f4       	brne	.+6      	; 0x18c0 <fdevopen+0x1c>
    18ba:	80 e0       	ldi	r24, 0x00	; 0
    18bc:	90 e0       	ldi	r25, 0x00	; 0
    18be:	38 c0       	rjmp	.+112    	; 0x1930 <fdevopen+0x8c>
    18c0:	6e e0       	ldi	r22, 0x0E	; 14
    18c2:	70 e0       	ldi	r23, 0x00	; 0
    18c4:	81 e0       	ldi	r24, 0x01	; 1
    18c6:	90 e0       	ldi	r25, 0x00	; 0
    18c8:	0e 94 d2 0e 	call	0x1da4	; 0x1da4 <calloc>
    18cc:	fc 01       	movw	r30, r24
    18ce:	00 97       	sbiw	r24, 0x00	; 0
    18d0:	a1 f3       	breq	.-24     	; 0x18ba <fdevopen+0x16>
    18d2:	80 e8       	ldi	r24, 0x80	; 128
    18d4:	83 83       	std	Z+3, r24	; 0x03
    18d6:	01 15       	cp	r16, r1
    18d8:	11 05       	cpc	r17, r1
    18da:	71 f0       	breq	.+28     	; 0x18f8 <fdevopen+0x54>
    18dc:	13 87       	std	Z+11, r17	; 0x0b
    18de:	02 87       	std	Z+10, r16	; 0x0a
    18e0:	81 e8       	ldi	r24, 0x81	; 129
    18e2:	83 83       	std	Z+3, r24	; 0x03
    18e4:	80 91 ef 03 	lds	r24, 0x03EF
    18e8:	90 91 f0 03 	lds	r25, 0x03F0
    18ec:	89 2b       	or	r24, r25
    18ee:	21 f4       	brne	.+8      	; 0x18f8 <fdevopen+0x54>
    18f0:	f0 93 f0 03 	sts	0x03F0, r31
    18f4:	e0 93 ef 03 	sts	0x03EF, r30
    18f8:	20 97       	sbiw	r28, 0x00	; 0
    18fa:	c9 f0       	breq	.+50     	; 0x192e <fdevopen+0x8a>
    18fc:	d1 87       	std	Z+9, r29	; 0x09
    18fe:	c0 87       	std	Z+8, r28	; 0x08
    1900:	83 81       	ldd	r24, Z+3	; 0x03
    1902:	82 60       	ori	r24, 0x02	; 2
    1904:	83 83       	std	Z+3, r24	; 0x03
    1906:	80 91 f1 03 	lds	r24, 0x03F1
    190a:	90 91 f2 03 	lds	r25, 0x03F2
    190e:	89 2b       	or	r24, r25
    1910:	71 f4       	brne	.+28     	; 0x192e <fdevopen+0x8a>
    1912:	f0 93 f2 03 	sts	0x03F2, r31
    1916:	e0 93 f1 03 	sts	0x03F1, r30
    191a:	80 91 f3 03 	lds	r24, 0x03F3
    191e:	90 91 f4 03 	lds	r25, 0x03F4
    1922:	89 2b       	or	r24, r25
    1924:	21 f4       	brne	.+8      	; 0x192e <fdevopen+0x8a>
    1926:	f0 93 f4 03 	sts	0x03F4, r31
    192a:	e0 93 f3 03 	sts	0x03F3, r30
    192e:	cf 01       	movw	r24, r30
    1930:	df 91       	pop	r29
    1932:	cf 91       	pop	r28
    1934:	1f 91       	pop	r17
    1936:	0f 91       	pop	r16
    1938:	08 95       	ret

0000193a <printf>:
    193a:	a0 e0       	ldi	r26, 0x00	; 0
    193c:	b0 e0       	ldi	r27, 0x00	; 0
    193e:	e3 ea       	ldi	r30, 0xA3	; 163
    1940:	fc e0       	ldi	r31, 0x0C	; 12
    1942:	0c 94 04 11 	jmp	0x2208	; 0x2208 <__prologue_saves__+0x20>
    1946:	fe 01       	movw	r30, r28
    1948:	35 96       	adiw	r30, 0x05	; 5
    194a:	61 91       	ld	r22, Z+
    194c:	71 91       	ld	r23, Z+
    194e:	af 01       	movw	r20, r30
    1950:	80 91 f1 03 	lds	r24, 0x03F1
    1954:	90 91 f2 03 	lds	r25, 0x03F2
    1958:	0e 94 00 0d 	call	0x1a00	; 0x1a00 <vfprintf>
    195c:	e2 e0       	ldi	r30, 0x02	; 2
    195e:	0c 94 20 11 	jmp	0x2240	; 0x2240 <__epilogue_restores__+0x20>

00001962 <puts>:
    1962:	0f 93       	push	r16
    1964:	1f 93       	push	r17
    1966:	cf 93       	push	r28
    1968:	df 93       	push	r29
    196a:	e0 91 f1 03 	lds	r30, 0x03F1
    196e:	f0 91 f2 03 	lds	r31, 0x03F2
    1972:	23 81       	ldd	r18, Z+3	; 0x03
    1974:	21 ff       	sbrs	r18, 1
    1976:	1b c0       	rjmp	.+54     	; 0x19ae <puts+0x4c>
    1978:	ec 01       	movw	r28, r24
    197a:	00 e0       	ldi	r16, 0x00	; 0
    197c:	10 e0       	ldi	r17, 0x00	; 0
    197e:	89 91       	ld	r24, Y+
    1980:	60 91 f1 03 	lds	r22, 0x03F1
    1984:	70 91 f2 03 	lds	r23, 0x03F2
    1988:	db 01       	movw	r26, r22
    198a:	18 96       	adiw	r26, 0x08	; 8
    198c:	ed 91       	ld	r30, X+
    198e:	fc 91       	ld	r31, X
    1990:	19 97       	sbiw	r26, 0x09	; 9
    1992:	88 23       	and	r24, r24
    1994:	31 f0       	breq	.+12     	; 0x19a2 <puts+0x40>
    1996:	09 95       	icall
    1998:	89 2b       	or	r24, r25
    199a:	89 f3       	breq	.-30     	; 0x197e <puts+0x1c>
    199c:	0f ef       	ldi	r16, 0xFF	; 255
    199e:	1f ef       	ldi	r17, 0xFF	; 255
    19a0:	ee cf       	rjmp	.-36     	; 0x197e <puts+0x1c>
    19a2:	8a e0       	ldi	r24, 0x0A	; 10
    19a4:	09 95       	icall
    19a6:	89 2b       	or	r24, r25
    19a8:	11 f4       	brne	.+4      	; 0x19ae <puts+0x4c>
    19aa:	c8 01       	movw	r24, r16
    19ac:	02 c0       	rjmp	.+4      	; 0x19b2 <puts+0x50>
    19ae:	8f ef       	ldi	r24, 0xFF	; 255
    19b0:	9f ef       	ldi	r25, 0xFF	; 255
    19b2:	df 91       	pop	r29
    19b4:	cf 91       	pop	r28
    19b6:	1f 91       	pop	r17
    19b8:	0f 91       	pop	r16
    19ba:	08 95       	ret

000019bc <sprintf>:
    19bc:	ae e0       	ldi	r26, 0x0E	; 14
    19be:	b0 e0       	ldi	r27, 0x00	; 0
    19c0:	e4 ee       	ldi	r30, 0xE4	; 228
    19c2:	fc e0       	ldi	r31, 0x0C	; 12
    19c4:	0c 94 02 11 	jmp	0x2204	; 0x2204 <__prologue_saves__+0x1c>
    19c8:	0d 89       	ldd	r16, Y+21	; 0x15
    19ca:	1e 89       	ldd	r17, Y+22	; 0x16
    19cc:	86 e0       	ldi	r24, 0x06	; 6
    19ce:	8c 83       	std	Y+4, r24	; 0x04
    19d0:	1a 83       	std	Y+2, r17	; 0x02
    19d2:	09 83       	std	Y+1, r16	; 0x01
    19d4:	8f ef       	ldi	r24, 0xFF	; 255
    19d6:	9f e7       	ldi	r25, 0x7F	; 127
    19d8:	9e 83       	std	Y+6, r25	; 0x06
    19da:	8d 83       	std	Y+5, r24	; 0x05
    19dc:	ae 01       	movw	r20, r28
    19de:	47 5e       	subi	r20, 0xE7	; 231
    19e0:	5f 4f       	sbci	r21, 0xFF	; 255
    19e2:	6f 89       	ldd	r22, Y+23	; 0x17
    19e4:	78 8d       	ldd	r23, Y+24	; 0x18
    19e6:	ce 01       	movw	r24, r28
    19e8:	01 96       	adiw	r24, 0x01	; 1
    19ea:	0e 94 00 0d 	call	0x1a00	; 0x1a00 <vfprintf>
    19ee:	ef 81       	ldd	r30, Y+7	; 0x07
    19f0:	f8 85       	ldd	r31, Y+8	; 0x08
    19f2:	e0 0f       	add	r30, r16
    19f4:	f1 1f       	adc	r31, r17
    19f6:	10 82       	st	Z, r1
    19f8:	2e 96       	adiw	r28, 0x0e	; 14
    19fa:	e4 e0       	ldi	r30, 0x04	; 4
    19fc:	0c 94 1e 11 	jmp	0x223c	; 0x223c <__epilogue_restores__+0x1c>

00001a00 <vfprintf>:
    1a00:	ac e0       	ldi	r26, 0x0C	; 12
    1a02:	b0 e0       	ldi	r27, 0x00	; 0
    1a04:	e6 e0       	ldi	r30, 0x06	; 6
    1a06:	fd e0       	ldi	r31, 0x0D	; 13
    1a08:	0c 94 f4 10 	jmp	0x21e8	; 0x21e8 <__prologue_saves__>
    1a0c:	7c 01       	movw	r14, r24
    1a0e:	6b 01       	movw	r12, r22
    1a10:	8a 01       	movw	r16, r20
    1a12:	fc 01       	movw	r30, r24
    1a14:	17 82       	std	Z+7, r1	; 0x07
    1a16:	16 82       	std	Z+6, r1	; 0x06
    1a18:	83 81       	ldd	r24, Z+3	; 0x03
    1a1a:	81 ff       	sbrs	r24, 1
    1a1c:	bd c1       	rjmp	.+890    	; 0x1d98 <vfprintf+0x398>
    1a1e:	ce 01       	movw	r24, r28
    1a20:	01 96       	adiw	r24, 0x01	; 1
    1a22:	4c 01       	movw	r8, r24
    1a24:	f7 01       	movw	r30, r14
    1a26:	93 81       	ldd	r25, Z+3	; 0x03
    1a28:	f6 01       	movw	r30, r12
    1a2a:	93 fd       	sbrc	r25, 3
    1a2c:	85 91       	lpm	r24, Z+
    1a2e:	93 ff       	sbrs	r25, 3
    1a30:	81 91       	ld	r24, Z+
    1a32:	6f 01       	movw	r12, r30
    1a34:	88 23       	and	r24, r24
    1a36:	09 f4       	brne	.+2      	; 0x1a3a <vfprintf+0x3a>
    1a38:	ab c1       	rjmp	.+854    	; 0x1d90 <vfprintf+0x390>
    1a3a:	85 32       	cpi	r24, 0x25	; 37
    1a3c:	39 f4       	brne	.+14     	; 0x1a4c <vfprintf+0x4c>
    1a3e:	93 fd       	sbrc	r25, 3
    1a40:	85 91       	lpm	r24, Z+
    1a42:	93 ff       	sbrs	r25, 3
    1a44:	81 91       	ld	r24, Z+
    1a46:	6f 01       	movw	r12, r30
    1a48:	85 32       	cpi	r24, 0x25	; 37
    1a4a:	29 f4       	brne	.+10     	; 0x1a56 <vfprintf+0x56>
    1a4c:	b7 01       	movw	r22, r14
    1a4e:	90 e0       	ldi	r25, 0x00	; 0
    1a50:	0e 94 32 10 	call	0x2064	; 0x2064 <fputc>
    1a54:	e7 cf       	rjmp	.-50     	; 0x1a24 <vfprintf+0x24>
    1a56:	51 2c       	mov	r5, r1
    1a58:	31 2c       	mov	r3, r1
    1a5a:	20 e0       	ldi	r18, 0x00	; 0
    1a5c:	20 32       	cpi	r18, 0x20	; 32
    1a5e:	a0 f4       	brcc	.+40     	; 0x1a88 <vfprintf+0x88>
    1a60:	8b 32       	cpi	r24, 0x2B	; 43
    1a62:	69 f0       	breq	.+26     	; 0x1a7e <vfprintf+0x7e>
    1a64:	30 f4       	brcc	.+12     	; 0x1a72 <vfprintf+0x72>
    1a66:	80 32       	cpi	r24, 0x20	; 32
    1a68:	59 f0       	breq	.+22     	; 0x1a80 <vfprintf+0x80>
    1a6a:	83 32       	cpi	r24, 0x23	; 35
    1a6c:	69 f4       	brne	.+26     	; 0x1a88 <vfprintf+0x88>
    1a6e:	20 61       	ori	r18, 0x10	; 16
    1a70:	2c c0       	rjmp	.+88     	; 0x1aca <vfprintf+0xca>
    1a72:	8d 32       	cpi	r24, 0x2D	; 45
    1a74:	39 f0       	breq	.+14     	; 0x1a84 <vfprintf+0x84>
    1a76:	80 33       	cpi	r24, 0x30	; 48
    1a78:	39 f4       	brne	.+14     	; 0x1a88 <vfprintf+0x88>
    1a7a:	21 60       	ori	r18, 0x01	; 1
    1a7c:	26 c0       	rjmp	.+76     	; 0x1aca <vfprintf+0xca>
    1a7e:	22 60       	ori	r18, 0x02	; 2
    1a80:	24 60       	ori	r18, 0x04	; 4
    1a82:	23 c0       	rjmp	.+70     	; 0x1aca <vfprintf+0xca>
    1a84:	28 60       	ori	r18, 0x08	; 8
    1a86:	21 c0       	rjmp	.+66     	; 0x1aca <vfprintf+0xca>
    1a88:	27 fd       	sbrc	r18, 7
    1a8a:	27 c0       	rjmp	.+78     	; 0x1ada <vfprintf+0xda>
    1a8c:	30 ed       	ldi	r19, 0xD0	; 208
    1a8e:	38 0f       	add	r19, r24
    1a90:	3a 30       	cpi	r19, 0x0A	; 10
    1a92:	78 f4       	brcc	.+30     	; 0x1ab2 <vfprintf+0xb2>
    1a94:	26 ff       	sbrs	r18, 6
    1a96:	06 c0       	rjmp	.+12     	; 0x1aa4 <vfprintf+0xa4>
    1a98:	fa e0       	ldi	r31, 0x0A	; 10
    1a9a:	5f 9e       	mul	r5, r31
    1a9c:	30 0d       	add	r19, r0
    1a9e:	11 24       	eor	r1, r1
    1aa0:	53 2e       	mov	r5, r19
    1aa2:	13 c0       	rjmp	.+38     	; 0x1aca <vfprintf+0xca>
    1aa4:	8a e0       	ldi	r24, 0x0A	; 10
    1aa6:	38 9e       	mul	r3, r24
    1aa8:	30 0d       	add	r19, r0
    1aaa:	11 24       	eor	r1, r1
    1aac:	33 2e       	mov	r3, r19
    1aae:	20 62       	ori	r18, 0x20	; 32
    1ab0:	0c c0       	rjmp	.+24     	; 0x1aca <vfprintf+0xca>
    1ab2:	8e 32       	cpi	r24, 0x2E	; 46
    1ab4:	21 f4       	brne	.+8      	; 0x1abe <vfprintf+0xbe>
    1ab6:	26 fd       	sbrc	r18, 6
    1ab8:	6b c1       	rjmp	.+726    	; 0x1d90 <vfprintf+0x390>
    1aba:	20 64       	ori	r18, 0x40	; 64
    1abc:	06 c0       	rjmp	.+12     	; 0x1aca <vfprintf+0xca>
    1abe:	8c 36       	cpi	r24, 0x6C	; 108
    1ac0:	11 f4       	brne	.+4      	; 0x1ac6 <vfprintf+0xc6>
    1ac2:	20 68       	ori	r18, 0x80	; 128
    1ac4:	02 c0       	rjmp	.+4      	; 0x1aca <vfprintf+0xca>
    1ac6:	88 36       	cpi	r24, 0x68	; 104
    1ac8:	41 f4       	brne	.+16     	; 0x1ada <vfprintf+0xda>
    1aca:	f6 01       	movw	r30, r12
    1acc:	93 fd       	sbrc	r25, 3
    1ace:	85 91       	lpm	r24, Z+
    1ad0:	93 ff       	sbrs	r25, 3
    1ad2:	81 91       	ld	r24, Z+
    1ad4:	6f 01       	movw	r12, r30
    1ad6:	81 11       	cpse	r24, r1
    1ad8:	c1 cf       	rjmp	.-126    	; 0x1a5c <vfprintf+0x5c>
    1ada:	98 2f       	mov	r25, r24
    1adc:	9f 7d       	andi	r25, 0xDF	; 223
    1ade:	95 54       	subi	r25, 0x45	; 69
    1ae0:	93 30       	cpi	r25, 0x03	; 3
    1ae2:	28 f4       	brcc	.+10     	; 0x1aee <vfprintf+0xee>
    1ae4:	0c 5f       	subi	r16, 0xFC	; 252
    1ae6:	1f 4f       	sbci	r17, 0xFF	; 255
    1ae8:	ff e3       	ldi	r31, 0x3F	; 63
    1aea:	f9 83       	std	Y+1, r31	; 0x01
    1aec:	0d c0       	rjmp	.+26     	; 0x1b08 <vfprintf+0x108>
    1aee:	83 36       	cpi	r24, 0x63	; 99
    1af0:	31 f0       	breq	.+12     	; 0x1afe <vfprintf+0xfe>
    1af2:	83 37       	cpi	r24, 0x73	; 115
    1af4:	71 f0       	breq	.+28     	; 0x1b12 <vfprintf+0x112>
    1af6:	83 35       	cpi	r24, 0x53	; 83
    1af8:	09 f0       	breq	.+2      	; 0x1afc <vfprintf+0xfc>
    1afa:	5b c0       	rjmp	.+182    	; 0x1bb2 <vfprintf+0x1b2>
    1afc:	22 c0       	rjmp	.+68     	; 0x1b42 <vfprintf+0x142>
    1afe:	f8 01       	movw	r30, r16
    1b00:	80 81       	ld	r24, Z
    1b02:	89 83       	std	Y+1, r24	; 0x01
    1b04:	0e 5f       	subi	r16, 0xFE	; 254
    1b06:	1f 4f       	sbci	r17, 0xFF	; 255
    1b08:	44 24       	eor	r4, r4
    1b0a:	43 94       	inc	r4
    1b0c:	51 2c       	mov	r5, r1
    1b0e:	54 01       	movw	r10, r8
    1b10:	15 c0       	rjmp	.+42     	; 0x1b3c <vfprintf+0x13c>
    1b12:	38 01       	movw	r6, r16
    1b14:	f2 e0       	ldi	r31, 0x02	; 2
    1b16:	6f 0e       	add	r6, r31
    1b18:	71 1c       	adc	r7, r1
    1b1a:	f8 01       	movw	r30, r16
    1b1c:	a0 80       	ld	r10, Z
    1b1e:	b1 80       	ldd	r11, Z+1	; 0x01
    1b20:	26 ff       	sbrs	r18, 6
    1b22:	03 c0       	rjmp	.+6      	; 0x1b2a <vfprintf+0x12a>
    1b24:	65 2d       	mov	r22, r5
    1b26:	70 e0       	ldi	r23, 0x00	; 0
    1b28:	02 c0       	rjmp	.+4      	; 0x1b2e <vfprintf+0x12e>
    1b2a:	6f ef       	ldi	r22, 0xFF	; 255
    1b2c:	7f ef       	ldi	r23, 0xFF	; 255
    1b2e:	c5 01       	movw	r24, r10
    1b30:	2c 87       	std	Y+12, r18	; 0x0c
    1b32:	0e 94 27 10 	call	0x204e	; 0x204e <strnlen>
    1b36:	2c 01       	movw	r4, r24
    1b38:	83 01       	movw	r16, r6
    1b3a:	2c 85       	ldd	r18, Y+12	; 0x0c
    1b3c:	2f 77       	andi	r18, 0x7F	; 127
    1b3e:	22 2e       	mov	r2, r18
    1b40:	17 c0       	rjmp	.+46     	; 0x1b70 <vfprintf+0x170>
    1b42:	38 01       	movw	r6, r16
    1b44:	f2 e0       	ldi	r31, 0x02	; 2
    1b46:	6f 0e       	add	r6, r31
    1b48:	71 1c       	adc	r7, r1
    1b4a:	f8 01       	movw	r30, r16
    1b4c:	a0 80       	ld	r10, Z
    1b4e:	b1 80       	ldd	r11, Z+1	; 0x01
    1b50:	26 ff       	sbrs	r18, 6
    1b52:	03 c0       	rjmp	.+6      	; 0x1b5a <vfprintf+0x15a>
    1b54:	65 2d       	mov	r22, r5
    1b56:	70 e0       	ldi	r23, 0x00	; 0
    1b58:	02 c0       	rjmp	.+4      	; 0x1b5e <vfprintf+0x15e>
    1b5a:	6f ef       	ldi	r22, 0xFF	; 255
    1b5c:	7f ef       	ldi	r23, 0xFF	; 255
    1b5e:	c5 01       	movw	r24, r10
    1b60:	2c 87       	std	Y+12, r18	; 0x0c
    1b62:	0e 94 15 10 	call	0x202a	; 0x202a <strnlen_P>
    1b66:	2c 01       	movw	r4, r24
    1b68:	2c 85       	ldd	r18, Y+12	; 0x0c
    1b6a:	20 68       	ori	r18, 0x80	; 128
    1b6c:	22 2e       	mov	r2, r18
    1b6e:	83 01       	movw	r16, r6
    1b70:	23 fc       	sbrc	r2, 3
    1b72:	1b c0       	rjmp	.+54     	; 0x1baa <vfprintf+0x1aa>
    1b74:	83 2d       	mov	r24, r3
    1b76:	90 e0       	ldi	r25, 0x00	; 0
    1b78:	48 16       	cp	r4, r24
    1b7a:	59 06       	cpc	r5, r25
    1b7c:	b0 f4       	brcc	.+44     	; 0x1baa <vfprintf+0x1aa>
    1b7e:	b7 01       	movw	r22, r14
    1b80:	80 e2       	ldi	r24, 0x20	; 32
    1b82:	90 e0       	ldi	r25, 0x00	; 0
    1b84:	0e 94 32 10 	call	0x2064	; 0x2064 <fputc>
    1b88:	3a 94       	dec	r3
    1b8a:	f4 cf       	rjmp	.-24     	; 0x1b74 <vfprintf+0x174>
    1b8c:	f5 01       	movw	r30, r10
    1b8e:	27 fc       	sbrc	r2, 7
    1b90:	85 91       	lpm	r24, Z+
    1b92:	27 fe       	sbrs	r2, 7
    1b94:	81 91       	ld	r24, Z+
    1b96:	5f 01       	movw	r10, r30
    1b98:	b7 01       	movw	r22, r14
    1b9a:	90 e0       	ldi	r25, 0x00	; 0
    1b9c:	0e 94 32 10 	call	0x2064	; 0x2064 <fputc>
    1ba0:	31 10       	cpse	r3, r1
    1ba2:	3a 94       	dec	r3
    1ba4:	f1 e0       	ldi	r31, 0x01	; 1
    1ba6:	4f 1a       	sub	r4, r31
    1ba8:	51 08       	sbc	r5, r1
    1baa:	41 14       	cp	r4, r1
    1bac:	51 04       	cpc	r5, r1
    1bae:	71 f7       	brne	.-36     	; 0x1b8c <vfprintf+0x18c>
    1bb0:	e5 c0       	rjmp	.+458    	; 0x1d7c <vfprintf+0x37c>
    1bb2:	84 36       	cpi	r24, 0x64	; 100
    1bb4:	11 f0       	breq	.+4      	; 0x1bba <vfprintf+0x1ba>
    1bb6:	89 36       	cpi	r24, 0x69	; 105
    1bb8:	39 f5       	brne	.+78     	; 0x1c08 <vfprintf+0x208>
    1bba:	f8 01       	movw	r30, r16
    1bbc:	27 ff       	sbrs	r18, 7
    1bbe:	07 c0       	rjmp	.+14     	; 0x1bce <vfprintf+0x1ce>
    1bc0:	60 81       	ld	r22, Z
    1bc2:	71 81       	ldd	r23, Z+1	; 0x01
    1bc4:	82 81       	ldd	r24, Z+2	; 0x02
    1bc6:	93 81       	ldd	r25, Z+3	; 0x03
    1bc8:	0c 5f       	subi	r16, 0xFC	; 252
    1bca:	1f 4f       	sbci	r17, 0xFF	; 255
    1bcc:	08 c0       	rjmp	.+16     	; 0x1bde <vfprintf+0x1de>
    1bce:	60 81       	ld	r22, Z
    1bd0:	71 81       	ldd	r23, Z+1	; 0x01
    1bd2:	88 27       	eor	r24, r24
    1bd4:	77 fd       	sbrc	r23, 7
    1bd6:	80 95       	com	r24
    1bd8:	98 2f       	mov	r25, r24
    1bda:	0e 5f       	subi	r16, 0xFE	; 254
    1bdc:	1f 4f       	sbci	r17, 0xFF	; 255
    1bde:	2f 76       	andi	r18, 0x6F	; 111
    1be0:	b2 2e       	mov	r11, r18
    1be2:	97 ff       	sbrs	r25, 7
    1be4:	09 c0       	rjmp	.+18     	; 0x1bf8 <vfprintf+0x1f8>
    1be6:	90 95       	com	r25
    1be8:	80 95       	com	r24
    1bea:	70 95       	com	r23
    1bec:	61 95       	neg	r22
    1bee:	7f 4f       	sbci	r23, 0xFF	; 255
    1bf0:	8f 4f       	sbci	r24, 0xFF	; 255
    1bf2:	9f 4f       	sbci	r25, 0xFF	; 255
    1bf4:	20 68       	ori	r18, 0x80	; 128
    1bf6:	b2 2e       	mov	r11, r18
    1bf8:	2a e0       	ldi	r18, 0x0A	; 10
    1bfa:	30 e0       	ldi	r19, 0x00	; 0
    1bfc:	a4 01       	movw	r20, r8
    1bfe:	0e 94 64 10 	call	0x20c8	; 0x20c8 <__ultoa_invert>
    1c02:	a8 2e       	mov	r10, r24
    1c04:	a8 18       	sub	r10, r8
    1c06:	44 c0       	rjmp	.+136    	; 0x1c90 <vfprintf+0x290>
    1c08:	85 37       	cpi	r24, 0x75	; 117
    1c0a:	29 f4       	brne	.+10     	; 0x1c16 <vfprintf+0x216>
    1c0c:	2f 7e       	andi	r18, 0xEF	; 239
    1c0e:	b2 2e       	mov	r11, r18
    1c10:	2a e0       	ldi	r18, 0x0A	; 10
    1c12:	30 e0       	ldi	r19, 0x00	; 0
    1c14:	25 c0       	rjmp	.+74     	; 0x1c60 <vfprintf+0x260>
    1c16:	f2 2f       	mov	r31, r18
    1c18:	f9 7f       	andi	r31, 0xF9	; 249
    1c1a:	bf 2e       	mov	r11, r31
    1c1c:	8f 36       	cpi	r24, 0x6F	; 111
    1c1e:	c1 f0       	breq	.+48     	; 0x1c50 <vfprintf+0x250>
    1c20:	18 f4       	brcc	.+6      	; 0x1c28 <vfprintf+0x228>
    1c22:	88 35       	cpi	r24, 0x58	; 88
    1c24:	79 f0       	breq	.+30     	; 0x1c44 <vfprintf+0x244>
    1c26:	b4 c0       	rjmp	.+360    	; 0x1d90 <vfprintf+0x390>
    1c28:	80 37       	cpi	r24, 0x70	; 112
    1c2a:	19 f0       	breq	.+6      	; 0x1c32 <vfprintf+0x232>
    1c2c:	88 37       	cpi	r24, 0x78	; 120
    1c2e:	21 f0       	breq	.+8      	; 0x1c38 <vfprintf+0x238>
    1c30:	af c0       	rjmp	.+350    	; 0x1d90 <vfprintf+0x390>
    1c32:	2f 2f       	mov	r18, r31
    1c34:	20 61       	ori	r18, 0x10	; 16
    1c36:	b2 2e       	mov	r11, r18
    1c38:	b4 fe       	sbrs	r11, 4
    1c3a:	0d c0       	rjmp	.+26     	; 0x1c56 <vfprintf+0x256>
    1c3c:	8b 2d       	mov	r24, r11
    1c3e:	84 60       	ori	r24, 0x04	; 4
    1c40:	b8 2e       	mov	r11, r24
    1c42:	09 c0       	rjmp	.+18     	; 0x1c56 <vfprintf+0x256>
    1c44:	24 ff       	sbrs	r18, 4
    1c46:	0a c0       	rjmp	.+20     	; 0x1c5c <vfprintf+0x25c>
    1c48:	9f 2f       	mov	r25, r31
    1c4a:	96 60       	ori	r25, 0x06	; 6
    1c4c:	b9 2e       	mov	r11, r25
    1c4e:	06 c0       	rjmp	.+12     	; 0x1c5c <vfprintf+0x25c>
    1c50:	28 e0       	ldi	r18, 0x08	; 8
    1c52:	30 e0       	ldi	r19, 0x00	; 0
    1c54:	05 c0       	rjmp	.+10     	; 0x1c60 <vfprintf+0x260>
    1c56:	20 e1       	ldi	r18, 0x10	; 16
    1c58:	30 e0       	ldi	r19, 0x00	; 0
    1c5a:	02 c0       	rjmp	.+4      	; 0x1c60 <vfprintf+0x260>
    1c5c:	20 e1       	ldi	r18, 0x10	; 16
    1c5e:	32 e0       	ldi	r19, 0x02	; 2
    1c60:	f8 01       	movw	r30, r16
    1c62:	b7 fe       	sbrs	r11, 7
    1c64:	07 c0       	rjmp	.+14     	; 0x1c74 <vfprintf+0x274>
    1c66:	60 81       	ld	r22, Z
    1c68:	71 81       	ldd	r23, Z+1	; 0x01
    1c6a:	82 81       	ldd	r24, Z+2	; 0x02
    1c6c:	93 81       	ldd	r25, Z+3	; 0x03
    1c6e:	0c 5f       	subi	r16, 0xFC	; 252
    1c70:	1f 4f       	sbci	r17, 0xFF	; 255
    1c72:	06 c0       	rjmp	.+12     	; 0x1c80 <vfprintf+0x280>
    1c74:	60 81       	ld	r22, Z
    1c76:	71 81       	ldd	r23, Z+1	; 0x01
    1c78:	80 e0       	ldi	r24, 0x00	; 0
    1c7a:	90 e0       	ldi	r25, 0x00	; 0
    1c7c:	0e 5f       	subi	r16, 0xFE	; 254
    1c7e:	1f 4f       	sbci	r17, 0xFF	; 255
    1c80:	a4 01       	movw	r20, r8
    1c82:	0e 94 64 10 	call	0x20c8	; 0x20c8 <__ultoa_invert>
    1c86:	a8 2e       	mov	r10, r24
    1c88:	a8 18       	sub	r10, r8
    1c8a:	fb 2d       	mov	r31, r11
    1c8c:	ff 77       	andi	r31, 0x7F	; 127
    1c8e:	bf 2e       	mov	r11, r31
    1c90:	b6 fe       	sbrs	r11, 6
    1c92:	0b c0       	rjmp	.+22     	; 0x1caa <vfprintf+0x2aa>
    1c94:	2b 2d       	mov	r18, r11
    1c96:	2e 7f       	andi	r18, 0xFE	; 254
    1c98:	a5 14       	cp	r10, r5
    1c9a:	50 f4       	brcc	.+20     	; 0x1cb0 <vfprintf+0x2b0>
    1c9c:	b4 fe       	sbrs	r11, 4
    1c9e:	0a c0       	rjmp	.+20     	; 0x1cb4 <vfprintf+0x2b4>
    1ca0:	b2 fc       	sbrc	r11, 2
    1ca2:	08 c0       	rjmp	.+16     	; 0x1cb4 <vfprintf+0x2b4>
    1ca4:	2b 2d       	mov	r18, r11
    1ca6:	2e 7e       	andi	r18, 0xEE	; 238
    1ca8:	05 c0       	rjmp	.+10     	; 0x1cb4 <vfprintf+0x2b4>
    1caa:	7a 2c       	mov	r7, r10
    1cac:	2b 2d       	mov	r18, r11
    1cae:	03 c0       	rjmp	.+6      	; 0x1cb6 <vfprintf+0x2b6>
    1cb0:	7a 2c       	mov	r7, r10
    1cb2:	01 c0       	rjmp	.+2      	; 0x1cb6 <vfprintf+0x2b6>
    1cb4:	75 2c       	mov	r7, r5
    1cb6:	24 ff       	sbrs	r18, 4
    1cb8:	0d c0       	rjmp	.+26     	; 0x1cd4 <vfprintf+0x2d4>
    1cba:	fe 01       	movw	r30, r28
    1cbc:	ea 0d       	add	r30, r10
    1cbe:	f1 1d       	adc	r31, r1
    1cc0:	80 81       	ld	r24, Z
    1cc2:	80 33       	cpi	r24, 0x30	; 48
    1cc4:	11 f4       	brne	.+4      	; 0x1cca <vfprintf+0x2ca>
    1cc6:	29 7e       	andi	r18, 0xE9	; 233
    1cc8:	09 c0       	rjmp	.+18     	; 0x1cdc <vfprintf+0x2dc>
    1cca:	22 ff       	sbrs	r18, 2
    1ccc:	06 c0       	rjmp	.+12     	; 0x1cda <vfprintf+0x2da>
    1cce:	73 94       	inc	r7
    1cd0:	73 94       	inc	r7
    1cd2:	04 c0       	rjmp	.+8      	; 0x1cdc <vfprintf+0x2dc>
    1cd4:	82 2f       	mov	r24, r18
    1cd6:	86 78       	andi	r24, 0x86	; 134
    1cd8:	09 f0       	breq	.+2      	; 0x1cdc <vfprintf+0x2dc>
    1cda:	73 94       	inc	r7
    1cdc:	23 fd       	sbrc	r18, 3
    1cde:	13 c0       	rjmp	.+38     	; 0x1d06 <vfprintf+0x306>
    1ce0:	20 ff       	sbrs	r18, 0
    1ce2:	06 c0       	rjmp	.+12     	; 0x1cf0 <vfprintf+0x2f0>
    1ce4:	5a 2c       	mov	r5, r10
    1ce6:	73 14       	cp	r7, r3
    1ce8:	18 f4       	brcc	.+6      	; 0x1cf0 <vfprintf+0x2f0>
    1cea:	53 0c       	add	r5, r3
    1cec:	57 18       	sub	r5, r7
    1cee:	73 2c       	mov	r7, r3
    1cf0:	73 14       	cp	r7, r3
    1cf2:	68 f4       	brcc	.+26     	; 0x1d0e <vfprintf+0x30e>
    1cf4:	b7 01       	movw	r22, r14
    1cf6:	80 e2       	ldi	r24, 0x20	; 32
    1cf8:	90 e0       	ldi	r25, 0x00	; 0
    1cfa:	2c 87       	std	Y+12, r18	; 0x0c
    1cfc:	0e 94 32 10 	call	0x2064	; 0x2064 <fputc>
    1d00:	73 94       	inc	r7
    1d02:	2c 85       	ldd	r18, Y+12	; 0x0c
    1d04:	f5 cf       	rjmp	.-22     	; 0x1cf0 <vfprintf+0x2f0>
    1d06:	73 14       	cp	r7, r3
    1d08:	10 f4       	brcc	.+4      	; 0x1d0e <vfprintf+0x30e>
    1d0a:	37 18       	sub	r3, r7
    1d0c:	01 c0       	rjmp	.+2      	; 0x1d10 <vfprintf+0x310>
    1d0e:	31 2c       	mov	r3, r1
    1d10:	24 ff       	sbrs	r18, 4
    1d12:	12 c0       	rjmp	.+36     	; 0x1d38 <vfprintf+0x338>
    1d14:	b7 01       	movw	r22, r14
    1d16:	80 e3       	ldi	r24, 0x30	; 48
    1d18:	90 e0       	ldi	r25, 0x00	; 0
    1d1a:	2c 87       	std	Y+12, r18	; 0x0c
    1d1c:	0e 94 32 10 	call	0x2064	; 0x2064 <fputc>
    1d20:	2c 85       	ldd	r18, Y+12	; 0x0c
    1d22:	22 ff       	sbrs	r18, 2
    1d24:	17 c0       	rjmp	.+46     	; 0x1d54 <vfprintf+0x354>
    1d26:	21 ff       	sbrs	r18, 1
    1d28:	03 c0       	rjmp	.+6      	; 0x1d30 <vfprintf+0x330>
    1d2a:	88 e5       	ldi	r24, 0x58	; 88
    1d2c:	90 e0       	ldi	r25, 0x00	; 0
    1d2e:	02 c0       	rjmp	.+4      	; 0x1d34 <vfprintf+0x334>
    1d30:	88 e7       	ldi	r24, 0x78	; 120
    1d32:	90 e0       	ldi	r25, 0x00	; 0
    1d34:	b7 01       	movw	r22, r14
    1d36:	0c c0       	rjmp	.+24     	; 0x1d50 <vfprintf+0x350>
    1d38:	82 2f       	mov	r24, r18
    1d3a:	86 78       	andi	r24, 0x86	; 134
    1d3c:	59 f0       	breq	.+22     	; 0x1d54 <vfprintf+0x354>
    1d3e:	21 fd       	sbrc	r18, 1
    1d40:	02 c0       	rjmp	.+4      	; 0x1d46 <vfprintf+0x346>
    1d42:	80 e2       	ldi	r24, 0x20	; 32
    1d44:	01 c0       	rjmp	.+2      	; 0x1d48 <vfprintf+0x348>
    1d46:	8b e2       	ldi	r24, 0x2B	; 43
    1d48:	27 fd       	sbrc	r18, 7
    1d4a:	8d e2       	ldi	r24, 0x2D	; 45
    1d4c:	b7 01       	movw	r22, r14
    1d4e:	90 e0       	ldi	r25, 0x00	; 0
    1d50:	0e 94 32 10 	call	0x2064	; 0x2064 <fputc>
    1d54:	a5 14       	cp	r10, r5
    1d56:	38 f4       	brcc	.+14     	; 0x1d66 <vfprintf+0x366>
    1d58:	b7 01       	movw	r22, r14
    1d5a:	80 e3       	ldi	r24, 0x30	; 48
    1d5c:	90 e0       	ldi	r25, 0x00	; 0
    1d5e:	0e 94 32 10 	call	0x2064	; 0x2064 <fputc>
    1d62:	5a 94       	dec	r5
    1d64:	f7 cf       	rjmp	.-18     	; 0x1d54 <vfprintf+0x354>
    1d66:	aa 94       	dec	r10
    1d68:	f4 01       	movw	r30, r8
    1d6a:	ea 0d       	add	r30, r10
    1d6c:	f1 1d       	adc	r31, r1
    1d6e:	80 81       	ld	r24, Z
    1d70:	b7 01       	movw	r22, r14
    1d72:	90 e0       	ldi	r25, 0x00	; 0
    1d74:	0e 94 32 10 	call	0x2064	; 0x2064 <fputc>
    1d78:	a1 10       	cpse	r10, r1
    1d7a:	f5 cf       	rjmp	.-22     	; 0x1d66 <vfprintf+0x366>
    1d7c:	33 20       	and	r3, r3
    1d7e:	09 f4       	brne	.+2      	; 0x1d82 <vfprintf+0x382>
    1d80:	51 ce       	rjmp	.-862    	; 0x1a24 <vfprintf+0x24>
    1d82:	b7 01       	movw	r22, r14
    1d84:	80 e2       	ldi	r24, 0x20	; 32
    1d86:	90 e0       	ldi	r25, 0x00	; 0
    1d88:	0e 94 32 10 	call	0x2064	; 0x2064 <fputc>
    1d8c:	3a 94       	dec	r3
    1d8e:	f6 cf       	rjmp	.-20     	; 0x1d7c <vfprintf+0x37c>
    1d90:	f7 01       	movw	r30, r14
    1d92:	86 81       	ldd	r24, Z+6	; 0x06
    1d94:	97 81       	ldd	r25, Z+7	; 0x07
    1d96:	02 c0       	rjmp	.+4      	; 0x1d9c <vfprintf+0x39c>
    1d98:	8f ef       	ldi	r24, 0xFF	; 255
    1d9a:	9f ef       	ldi	r25, 0xFF	; 255
    1d9c:	2c 96       	adiw	r28, 0x0c	; 12
    1d9e:	e2 e1       	ldi	r30, 0x12	; 18
    1da0:	0c 94 10 11 	jmp	0x2220	; 0x2220 <__epilogue_restores__>

00001da4 <calloc>:
    1da4:	0f 93       	push	r16
    1da6:	1f 93       	push	r17
    1da8:	cf 93       	push	r28
    1daa:	df 93       	push	r29
    1dac:	86 9f       	mul	r24, r22
    1dae:	80 01       	movw	r16, r0
    1db0:	87 9f       	mul	r24, r23
    1db2:	10 0d       	add	r17, r0
    1db4:	96 9f       	mul	r25, r22
    1db6:	10 0d       	add	r17, r0
    1db8:	11 24       	eor	r1, r1
    1dba:	c8 01       	movw	r24, r16
    1dbc:	0e 94 ee 0e 	call	0x1ddc	; 0x1ddc <malloc>
    1dc0:	ec 01       	movw	r28, r24
    1dc2:	00 97       	sbiw	r24, 0x00	; 0
    1dc4:	29 f0       	breq	.+10     	; 0x1dd0 <calloc+0x2c>
    1dc6:	a8 01       	movw	r20, r16
    1dc8:	60 e0       	ldi	r22, 0x00	; 0
    1dca:	70 e0       	ldi	r23, 0x00	; 0
    1dcc:	0e 94 20 10 	call	0x2040	; 0x2040 <memset>
    1dd0:	ce 01       	movw	r24, r28
    1dd2:	df 91       	pop	r29
    1dd4:	cf 91       	pop	r28
    1dd6:	1f 91       	pop	r17
    1dd8:	0f 91       	pop	r16
    1dda:	08 95       	ret

00001ddc <malloc>:
    1ddc:	cf 93       	push	r28
    1dde:	df 93       	push	r29
    1de0:	82 30       	cpi	r24, 0x02	; 2
    1de2:	91 05       	cpc	r25, r1
    1de4:	10 f4       	brcc	.+4      	; 0x1dea <malloc+0xe>
    1de6:	82 e0       	ldi	r24, 0x02	; 2
    1de8:	90 e0       	ldi	r25, 0x00	; 0
    1dea:	e0 91 f7 03 	lds	r30, 0x03F7
    1dee:	f0 91 f8 03 	lds	r31, 0x03F8
    1df2:	20 e0       	ldi	r18, 0x00	; 0
    1df4:	30 e0       	ldi	r19, 0x00	; 0
    1df6:	a0 e0       	ldi	r26, 0x00	; 0
    1df8:	b0 e0       	ldi	r27, 0x00	; 0
    1dfa:	30 97       	sbiw	r30, 0x00	; 0
    1dfc:	39 f1       	breq	.+78     	; 0x1e4c <malloc+0x70>
    1dfe:	40 81       	ld	r20, Z
    1e00:	51 81       	ldd	r21, Z+1	; 0x01
    1e02:	48 17       	cp	r20, r24
    1e04:	59 07       	cpc	r21, r25
    1e06:	b8 f0       	brcs	.+46     	; 0x1e36 <malloc+0x5a>
    1e08:	48 17       	cp	r20, r24
    1e0a:	59 07       	cpc	r21, r25
    1e0c:	71 f4       	brne	.+28     	; 0x1e2a <malloc+0x4e>
    1e0e:	82 81       	ldd	r24, Z+2	; 0x02
    1e10:	93 81       	ldd	r25, Z+3	; 0x03
    1e12:	10 97       	sbiw	r26, 0x00	; 0
    1e14:	29 f0       	breq	.+10     	; 0x1e20 <malloc+0x44>
    1e16:	13 96       	adiw	r26, 0x03	; 3
    1e18:	9c 93       	st	X, r25
    1e1a:	8e 93       	st	-X, r24
    1e1c:	12 97       	sbiw	r26, 0x02	; 2
    1e1e:	2c c0       	rjmp	.+88     	; 0x1e78 <malloc+0x9c>
    1e20:	90 93 f8 03 	sts	0x03F8, r25
    1e24:	80 93 f7 03 	sts	0x03F7, r24
    1e28:	27 c0       	rjmp	.+78     	; 0x1e78 <malloc+0x9c>
    1e2a:	21 15       	cp	r18, r1
    1e2c:	31 05       	cpc	r19, r1
    1e2e:	31 f0       	breq	.+12     	; 0x1e3c <malloc+0x60>
    1e30:	42 17       	cp	r20, r18
    1e32:	53 07       	cpc	r21, r19
    1e34:	18 f0       	brcs	.+6      	; 0x1e3c <malloc+0x60>
    1e36:	a9 01       	movw	r20, r18
    1e38:	db 01       	movw	r26, r22
    1e3a:	01 c0       	rjmp	.+2      	; 0x1e3e <malloc+0x62>
    1e3c:	ef 01       	movw	r28, r30
    1e3e:	9a 01       	movw	r18, r20
    1e40:	bd 01       	movw	r22, r26
    1e42:	df 01       	movw	r26, r30
    1e44:	02 80       	ldd	r0, Z+2	; 0x02
    1e46:	f3 81       	ldd	r31, Z+3	; 0x03
    1e48:	e0 2d       	mov	r30, r0
    1e4a:	d7 cf       	rjmp	.-82     	; 0x1dfa <malloc+0x1e>
    1e4c:	21 15       	cp	r18, r1
    1e4e:	31 05       	cpc	r19, r1
    1e50:	f9 f0       	breq	.+62     	; 0x1e90 <malloc+0xb4>
    1e52:	28 1b       	sub	r18, r24
    1e54:	39 0b       	sbc	r19, r25
    1e56:	24 30       	cpi	r18, 0x04	; 4
    1e58:	31 05       	cpc	r19, r1
    1e5a:	80 f4       	brcc	.+32     	; 0x1e7c <malloc+0xa0>
    1e5c:	8a 81       	ldd	r24, Y+2	; 0x02
    1e5e:	9b 81       	ldd	r25, Y+3	; 0x03
    1e60:	61 15       	cp	r22, r1
    1e62:	71 05       	cpc	r23, r1
    1e64:	21 f0       	breq	.+8      	; 0x1e6e <malloc+0x92>
    1e66:	fb 01       	movw	r30, r22
    1e68:	93 83       	std	Z+3, r25	; 0x03
    1e6a:	82 83       	std	Z+2, r24	; 0x02
    1e6c:	04 c0       	rjmp	.+8      	; 0x1e76 <malloc+0x9a>
    1e6e:	90 93 f8 03 	sts	0x03F8, r25
    1e72:	80 93 f7 03 	sts	0x03F7, r24
    1e76:	fe 01       	movw	r30, r28
    1e78:	32 96       	adiw	r30, 0x02	; 2
    1e7a:	44 c0       	rjmp	.+136    	; 0x1f04 <malloc+0x128>
    1e7c:	fe 01       	movw	r30, r28
    1e7e:	e2 0f       	add	r30, r18
    1e80:	f3 1f       	adc	r31, r19
    1e82:	81 93       	st	Z+, r24
    1e84:	91 93       	st	Z+, r25
    1e86:	22 50       	subi	r18, 0x02	; 2
    1e88:	31 09       	sbc	r19, r1
    1e8a:	39 83       	std	Y+1, r19	; 0x01
    1e8c:	28 83       	st	Y, r18
    1e8e:	3a c0       	rjmp	.+116    	; 0x1f04 <malloc+0x128>
    1e90:	20 91 f5 03 	lds	r18, 0x03F5
    1e94:	30 91 f6 03 	lds	r19, 0x03F6
    1e98:	23 2b       	or	r18, r19
    1e9a:	41 f4       	brne	.+16     	; 0x1eac <malloc+0xd0>
    1e9c:	20 91 06 01 	lds	r18, 0x0106
    1ea0:	30 91 07 01 	lds	r19, 0x0107
    1ea4:	30 93 f6 03 	sts	0x03F6, r19
    1ea8:	20 93 f5 03 	sts	0x03F5, r18
    1eac:	20 91 04 01 	lds	r18, 0x0104
    1eb0:	30 91 05 01 	lds	r19, 0x0105
    1eb4:	21 15       	cp	r18, r1
    1eb6:	31 05       	cpc	r19, r1
    1eb8:	41 f4       	brne	.+16     	; 0x1eca <malloc+0xee>
    1eba:	2d b7       	in	r18, 0x3d	; 61
    1ebc:	3e b7       	in	r19, 0x3e	; 62
    1ebe:	40 91 08 01 	lds	r20, 0x0108
    1ec2:	50 91 09 01 	lds	r21, 0x0109
    1ec6:	24 1b       	sub	r18, r20
    1ec8:	35 0b       	sbc	r19, r21
    1eca:	e0 91 f5 03 	lds	r30, 0x03F5
    1ece:	f0 91 f6 03 	lds	r31, 0x03F6
    1ed2:	e2 17       	cp	r30, r18
    1ed4:	f3 07       	cpc	r31, r19
    1ed6:	a0 f4       	brcc	.+40     	; 0x1f00 <malloc+0x124>
    1ed8:	2e 1b       	sub	r18, r30
    1eda:	3f 0b       	sbc	r19, r31
    1edc:	28 17       	cp	r18, r24
    1ede:	39 07       	cpc	r19, r25
    1ee0:	78 f0       	brcs	.+30     	; 0x1f00 <malloc+0x124>
    1ee2:	ac 01       	movw	r20, r24
    1ee4:	4e 5f       	subi	r20, 0xFE	; 254
    1ee6:	5f 4f       	sbci	r21, 0xFF	; 255
    1ee8:	24 17       	cp	r18, r20
    1eea:	35 07       	cpc	r19, r21
    1eec:	48 f0       	brcs	.+18     	; 0x1f00 <malloc+0x124>
    1eee:	4e 0f       	add	r20, r30
    1ef0:	5f 1f       	adc	r21, r31
    1ef2:	50 93 f6 03 	sts	0x03F6, r21
    1ef6:	40 93 f5 03 	sts	0x03F5, r20
    1efa:	81 93       	st	Z+, r24
    1efc:	91 93       	st	Z+, r25
    1efe:	02 c0       	rjmp	.+4      	; 0x1f04 <malloc+0x128>
    1f00:	e0 e0       	ldi	r30, 0x00	; 0
    1f02:	f0 e0       	ldi	r31, 0x00	; 0
    1f04:	cf 01       	movw	r24, r30
    1f06:	df 91       	pop	r29
    1f08:	cf 91       	pop	r28
    1f0a:	08 95       	ret

00001f0c <free>:
    1f0c:	cf 93       	push	r28
    1f0e:	df 93       	push	r29
    1f10:	00 97       	sbiw	r24, 0x00	; 0
    1f12:	09 f4       	brne	.+2      	; 0x1f16 <free+0xa>
    1f14:	87 c0       	rjmp	.+270    	; 0x2024 <free+0x118>
    1f16:	fc 01       	movw	r30, r24
    1f18:	32 97       	sbiw	r30, 0x02	; 2
    1f1a:	13 82       	std	Z+3, r1	; 0x03
    1f1c:	12 82       	std	Z+2, r1	; 0x02
    1f1e:	c0 91 f7 03 	lds	r28, 0x03F7
    1f22:	d0 91 f8 03 	lds	r29, 0x03F8
    1f26:	20 97       	sbiw	r28, 0x00	; 0
    1f28:	81 f4       	brne	.+32     	; 0x1f4a <free+0x3e>
    1f2a:	20 81       	ld	r18, Z
    1f2c:	31 81       	ldd	r19, Z+1	; 0x01
    1f2e:	28 0f       	add	r18, r24
    1f30:	39 1f       	adc	r19, r25
    1f32:	80 91 f5 03 	lds	r24, 0x03F5
    1f36:	90 91 f6 03 	lds	r25, 0x03F6
    1f3a:	82 17       	cp	r24, r18
    1f3c:	93 07       	cpc	r25, r19
    1f3e:	79 f5       	brne	.+94     	; 0x1f9e <free+0x92>
    1f40:	f0 93 f6 03 	sts	0x03F6, r31
    1f44:	e0 93 f5 03 	sts	0x03F5, r30
    1f48:	6d c0       	rjmp	.+218    	; 0x2024 <free+0x118>
    1f4a:	de 01       	movw	r26, r28
    1f4c:	20 e0       	ldi	r18, 0x00	; 0
    1f4e:	30 e0       	ldi	r19, 0x00	; 0
    1f50:	ae 17       	cp	r26, r30
    1f52:	bf 07       	cpc	r27, r31
    1f54:	50 f4       	brcc	.+20     	; 0x1f6a <free+0x5e>
    1f56:	12 96       	adiw	r26, 0x02	; 2
    1f58:	4d 91       	ld	r20, X+
    1f5a:	5c 91       	ld	r21, X
    1f5c:	13 97       	sbiw	r26, 0x03	; 3
    1f5e:	9d 01       	movw	r18, r26
    1f60:	41 15       	cp	r20, r1
    1f62:	51 05       	cpc	r21, r1
    1f64:	09 f1       	breq	.+66     	; 0x1fa8 <free+0x9c>
    1f66:	da 01       	movw	r26, r20
    1f68:	f3 cf       	rjmp	.-26     	; 0x1f50 <free+0x44>
    1f6a:	b3 83       	std	Z+3, r27	; 0x03
    1f6c:	a2 83       	std	Z+2, r26	; 0x02
    1f6e:	40 81       	ld	r20, Z
    1f70:	51 81       	ldd	r21, Z+1	; 0x01
    1f72:	84 0f       	add	r24, r20
    1f74:	95 1f       	adc	r25, r21
    1f76:	8a 17       	cp	r24, r26
    1f78:	9b 07       	cpc	r25, r27
    1f7a:	71 f4       	brne	.+28     	; 0x1f98 <free+0x8c>
    1f7c:	8d 91       	ld	r24, X+
    1f7e:	9c 91       	ld	r25, X
    1f80:	11 97       	sbiw	r26, 0x01	; 1
    1f82:	84 0f       	add	r24, r20
    1f84:	95 1f       	adc	r25, r21
    1f86:	02 96       	adiw	r24, 0x02	; 2
    1f88:	91 83       	std	Z+1, r25	; 0x01
    1f8a:	80 83       	st	Z, r24
    1f8c:	12 96       	adiw	r26, 0x02	; 2
    1f8e:	8d 91       	ld	r24, X+
    1f90:	9c 91       	ld	r25, X
    1f92:	13 97       	sbiw	r26, 0x03	; 3
    1f94:	93 83       	std	Z+3, r25	; 0x03
    1f96:	82 83       	std	Z+2, r24	; 0x02
    1f98:	21 15       	cp	r18, r1
    1f9a:	31 05       	cpc	r19, r1
    1f9c:	29 f4       	brne	.+10     	; 0x1fa8 <free+0x9c>
    1f9e:	f0 93 f8 03 	sts	0x03F8, r31
    1fa2:	e0 93 f7 03 	sts	0x03F7, r30
    1fa6:	3e c0       	rjmp	.+124    	; 0x2024 <free+0x118>
    1fa8:	d9 01       	movw	r26, r18
    1faa:	13 96       	adiw	r26, 0x03	; 3
    1fac:	fc 93       	st	X, r31
    1fae:	ee 93       	st	-X, r30
    1fb0:	12 97       	sbiw	r26, 0x02	; 2
    1fb2:	4d 91       	ld	r20, X+
    1fb4:	5d 91       	ld	r21, X+
    1fb6:	a4 0f       	add	r26, r20
    1fb8:	b5 1f       	adc	r27, r21
    1fba:	ea 17       	cp	r30, r26
    1fbc:	fb 07       	cpc	r31, r27
    1fbe:	79 f4       	brne	.+30     	; 0x1fde <free+0xd2>
    1fc0:	80 81       	ld	r24, Z
    1fc2:	91 81       	ldd	r25, Z+1	; 0x01
    1fc4:	84 0f       	add	r24, r20
    1fc6:	95 1f       	adc	r25, r21
    1fc8:	02 96       	adiw	r24, 0x02	; 2
    1fca:	d9 01       	movw	r26, r18
    1fcc:	11 96       	adiw	r26, 0x01	; 1
    1fce:	9c 93       	st	X, r25
    1fd0:	8e 93       	st	-X, r24
    1fd2:	82 81       	ldd	r24, Z+2	; 0x02
    1fd4:	93 81       	ldd	r25, Z+3	; 0x03
    1fd6:	13 96       	adiw	r26, 0x03	; 3
    1fd8:	9c 93       	st	X, r25
    1fda:	8e 93       	st	-X, r24
    1fdc:	12 97       	sbiw	r26, 0x02	; 2
    1fde:	e0 e0       	ldi	r30, 0x00	; 0
    1fe0:	f0 e0       	ldi	r31, 0x00	; 0
    1fe2:	8a 81       	ldd	r24, Y+2	; 0x02
    1fe4:	9b 81       	ldd	r25, Y+3	; 0x03
    1fe6:	00 97       	sbiw	r24, 0x00	; 0
    1fe8:	19 f0       	breq	.+6      	; 0x1ff0 <free+0xe4>
    1fea:	fe 01       	movw	r30, r28
    1fec:	ec 01       	movw	r28, r24
    1fee:	f9 cf       	rjmp	.-14     	; 0x1fe2 <free+0xd6>
    1ff0:	ce 01       	movw	r24, r28
    1ff2:	02 96       	adiw	r24, 0x02	; 2
    1ff4:	28 81       	ld	r18, Y
    1ff6:	39 81       	ldd	r19, Y+1	; 0x01
    1ff8:	82 0f       	add	r24, r18
    1ffa:	93 1f       	adc	r25, r19
    1ffc:	20 91 f5 03 	lds	r18, 0x03F5
    2000:	30 91 f6 03 	lds	r19, 0x03F6
    2004:	28 17       	cp	r18, r24
    2006:	39 07       	cpc	r19, r25
    2008:	69 f4       	brne	.+26     	; 0x2024 <free+0x118>
    200a:	30 97       	sbiw	r30, 0x00	; 0
    200c:	29 f4       	brne	.+10     	; 0x2018 <free+0x10c>
    200e:	10 92 f8 03 	sts	0x03F8, r1
    2012:	10 92 f7 03 	sts	0x03F7, r1
    2016:	02 c0       	rjmp	.+4      	; 0x201c <free+0x110>
    2018:	13 82       	std	Z+3, r1	; 0x03
    201a:	12 82       	std	Z+2, r1	; 0x02
    201c:	d0 93 f6 03 	sts	0x03F6, r29
    2020:	c0 93 f5 03 	sts	0x03F5, r28
    2024:	df 91       	pop	r29
    2026:	cf 91       	pop	r28
    2028:	08 95       	ret

0000202a <strnlen_P>:
    202a:	fc 01       	movw	r30, r24
    202c:	05 90       	lpm	r0, Z+
    202e:	61 50       	subi	r22, 0x01	; 1
    2030:	70 40       	sbci	r23, 0x00	; 0
    2032:	01 10       	cpse	r0, r1
    2034:	d8 f7       	brcc	.-10     	; 0x202c <strnlen_P+0x2>
    2036:	80 95       	com	r24
    2038:	90 95       	com	r25
    203a:	8e 0f       	add	r24, r30
    203c:	9f 1f       	adc	r25, r31
    203e:	08 95       	ret

00002040 <memset>:
    2040:	dc 01       	movw	r26, r24
    2042:	01 c0       	rjmp	.+2      	; 0x2046 <memset+0x6>
    2044:	6d 93       	st	X+, r22
    2046:	41 50       	subi	r20, 0x01	; 1
    2048:	50 40       	sbci	r21, 0x00	; 0
    204a:	e0 f7       	brcc	.-8      	; 0x2044 <memset+0x4>
    204c:	08 95       	ret

0000204e <strnlen>:
    204e:	fc 01       	movw	r30, r24
    2050:	61 50       	subi	r22, 0x01	; 1
    2052:	70 40       	sbci	r23, 0x00	; 0
    2054:	01 90       	ld	r0, Z+
    2056:	01 10       	cpse	r0, r1
    2058:	d8 f7       	brcc	.-10     	; 0x2050 <strnlen+0x2>
    205a:	80 95       	com	r24
    205c:	90 95       	com	r25
    205e:	8e 0f       	add	r24, r30
    2060:	9f 1f       	adc	r25, r31
    2062:	08 95       	ret

00002064 <fputc>:
    2064:	0f 93       	push	r16
    2066:	1f 93       	push	r17
    2068:	cf 93       	push	r28
    206a:	df 93       	push	r29
    206c:	18 2f       	mov	r17, r24
    206e:	09 2f       	mov	r16, r25
    2070:	eb 01       	movw	r28, r22
    2072:	8b 81       	ldd	r24, Y+3	; 0x03
    2074:	81 fd       	sbrc	r24, 1
    2076:	03 c0       	rjmp	.+6      	; 0x207e <fputc+0x1a>
    2078:	8f ef       	ldi	r24, 0xFF	; 255
    207a:	9f ef       	ldi	r25, 0xFF	; 255
    207c:	20 c0       	rjmp	.+64     	; 0x20be <fputc+0x5a>
    207e:	82 ff       	sbrs	r24, 2
    2080:	10 c0       	rjmp	.+32     	; 0x20a2 <fputc+0x3e>
    2082:	4e 81       	ldd	r20, Y+6	; 0x06
    2084:	5f 81       	ldd	r21, Y+7	; 0x07
    2086:	2c 81       	ldd	r18, Y+4	; 0x04
    2088:	3d 81       	ldd	r19, Y+5	; 0x05
    208a:	42 17       	cp	r20, r18
    208c:	53 07       	cpc	r21, r19
    208e:	7c f4       	brge	.+30     	; 0x20ae <fputc+0x4a>
    2090:	e8 81       	ld	r30, Y
    2092:	f9 81       	ldd	r31, Y+1	; 0x01
    2094:	9f 01       	movw	r18, r30
    2096:	2f 5f       	subi	r18, 0xFF	; 255
    2098:	3f 4f       	sbci	r19, 0xFF	; 255
    209a:	39 83       	std	Y+1, r19	; 0x01
    209c:	28 83       	st	Y, r18
    209e:	10 83       	st	Z, r17
    20a0:	06 c0       	rjmp	.+12     	; 0x20ae <fputc+0x4a>
    20a2:	e8 85       	ldd	r30, Y+8	; 0x08
    20a4:	f9 85       	ldd	r31, Y+9	; 0x09
    20a6:	81 2f       	mov	r24, r17
    20a8:	09 95       	icall
    20aa:	89 2b       	or	r24, r25
    20ac:	29 f7       	brne	.-54     	; 0x2078 <fputc+0x14>
    20ae:	2e 81       	ldd	r18, Y+6	; 0x06
    20b0:	3f 81       	ldd	r19, Y+7	; 0x07
    20b2:	2f 5f       	subi	r18, 0xFF	; 255
    20b4:	3f 4f       	sbci	r19, 0xFF	; 255
    20b6:	3f 83       	std	Y+7, r19	; 0x07
    20b8:	2e 83       	std	Y+6, r18	; 0x06
    20ba:	81 2f       	mov	r24, r17
    20bc:	90 2f       	mov	r25, r16
    20be:	df 91       	pop	r29
    20c0:	cf 91       	pop	r28
    20c2:	1f 91       	pop	r17
    20c4:	0f 91       	pop	r16
    20c6:	08 95       	ret

000020c8 <__ultoa_invert>:
    20c8:	fa 01       	movw	r30, r20
    20ca:	aa 27       	eor	r26, r26
    20cc:	28 30       	cpi	r18, 0x08	; 8
    20ce:	51 f1       	breq	.+84     	; 0x2124 <__ultoa_invert+0x5c>
    20d0:	20 31       	cpi	r18, 0x10	; 16
    20d2:	81 f1       	breq	.+96     	; 0x2134 <__ultoa_invert+0x6c>
    20d4:	e8 94       	clt
    20d6:	6f 93       	push	r22
    20d8:	6e 7f       	andi	r22, 0xFE	; 254
    20da:	6e 5f       	subi	r22, 0xFE	; 254
    20dc:	7f 4f       	sbci	r23, 0xFF	; 255
    20de:	8f 4f       	sbci	r24, 0xFF	; 255
    20e0:	9f 4f       	sbci	r25, 0xFF	; 255
    20e2:	af 4f       	sbci	r26, 0xFF	; 255
    20e4:	b1 e0       	ldi	r27, 0x01	; 1
    20e6:	3e d0       	rcall	.+124    	; 0x2164 <__ultoa_invert+0x9c>
    20e8:	b4 e0       	ldi	r27, 0x04	; 4
    20ea:	3c d0       	rcall	.+120    	; 0x2164 <__ultoa_invert+0x9c>
    20ec:	67 0f       	add	r22, r23
    20ee:	78 1f       	adc	r23, r24
    20f0:	89 1f       	adc	r24, r25
    20f2:	9a 1f       	adc	r25, r26
    20f4:	a1 1d       	adc	r26, r1
    20f6:	68 0f       	add	r22, r24
    20f8:	79 1f       	adc	r23, r25
    20fa:	8a 1f       	adc	r24, r26
    20fc:	91 1d       	adc	r25, r1
    20fe:	a1 1d       	adc	r26, r1
    2100:	6a 0f       	add	r22, r26
    2102:	71 1d       	adc	r23, r1
    2104:	81 1d       	adc	r24, r1
    2106:	91 1d       	adc	r25, r1
    2108:	a1 1d       	adc	r26, r1
    210a:	20 d0       	rcall	.+64     	; 0x214c <__ultoa_invert+0x84>
    210c:	09 f4       	brne	.+2      	; 0x2110 <__ultoa_invert+0x48>
    210e:	68 94       	set
    2110:	3f 91       	pop	r19
    2112:	2a e0       	ldi	r18, 0x0A	; 10
    2114:	26 9f       	mul	r18, r22
    2116:	11 24       	eor	r1, r1
    2118:	30 19       	sub	r19, r0
    211a:	30 5d       	subi	r19, 0xD0	; 208
    211c:	31 93       	st	Z+, r19
    211e:	de f6       	brtc	.-74     	; 0x20d6 <__ultoa_invert+0xe>
    2120:	cf 01       	movw	r24, r30
    2122:	08 95       	ret
    2124:	46 2f       	mov	r20, r22
    2126:	47 70       	andi	r20, 0x07	; 7
    2128:	40 5d       	subi	r20, 0xD0	; 208
    212a:	41 93       	st	Z+, r20
    212c:	b3 e0       	ldi	r27, 0x03	; 3
    212e:	0f d0       	rcall	.+30     	; 0x214e <__ultoa_invert+0x86>
    2130:	c9 f7       	brne	.-14     	; 0x2124 <__ultoa_invert+0x5c>
    2132:	f6 cf       	rjmp	.-20     	; 0x2120 <__ultoa_invert+0x58>
    2134:	46 2f       	mov	r20, r22
    2136:	4f 70       	andi	r20, 0x0F	; 15
    2138:	40 5d       	subi	r20, 0xD0	; 208
    213a:	4a 33       	cpi	r20, 0x3A	; 58
    213c:	18 f0       	brcs	.+6      	; 0x2144 <__ultoa_invert+0x7c>
    213e:	49 5d       	subi	r20, 0xD9	; 217
    2140:	31 fd       	sbrc	r19, 1
    2142:	40 52       	subi	r20, 0x20	; 32
    2144:	41 93       	st	Z+, r20
    2146:	02 d0       	rcall	.+4      	; 0x214c <__ultoa_invert+0x84>
    2148:	a9 f7       	brne	.-22     	; 0x2134 <__ultoa_invert+0x6c>
    214a:	ea cf       	rjmp	.-44     	; 0x2120 <__ultoa_invert+0x58>
    214c:	b4 e0       	ldi	r27, 0x04	; 4
    214e:	a6 95       	lsr	r26
    2150:	97 95       	ror	r25
    2152:	87 95       	ror	r24
    2154:	77 95       	ror	r23
    2156:	67 95       	ror	r22
    2158:	ba 95       	dec	r27
    215a:	c9 f7       	brne	.-14     	; 0x214e <__ultoa_invert+0x86>
    215c:	00 97       	sbiw	r24, 0x00	; 0
    215e:	61 05       	cpc	r22, r1
    2160:	71 05       	cpc	r23, r1
    2162:	08 95       	ret
    2164:	9b 01       	movw	r18, r22
    2166:	ac 01       	movw	r20, r24
    2168:	0a 2e       	mov	r0, r26
    216a:	06 94       	lsr	r0
    216c:	57 95       	ror	r21
    216e:	47 95       	ror	r20
    2170:	37 95       	ror	r19
    2172:	27 95       	ror	r18
    2174:	ba 95       	dec	r27
    2176:	c9 f7       	brne	.-14     	; 0x216a <__ultoa_invert+0xa2>
    2178:	62 0f       	add	r22, r18
    217a:	73 1f       	adc	r23, r19
    217c:	84 1f       	adc	r24, r20
    217e:	95 1f       	adc	r25, r21
    2180:	a0 1d       	adc	r26, r0
    2182:	08 95       	ret

00002184 <__divmodsi4>:
    2184:	05 2e       	mov	r0, r21
    2186:	97 fb       	bst	r25, 7
    2188:	1e f4       	brtc	.+6      	; 0x2190 <__divmodsi4+0xc>
    218a:	00 94       	com	r0
    218c:	0e 94 d9 10 	call	0x21b2	; 0x21b2 <__negsi2>
    2190:	57 fd       	sbrc	r21, 7
    2192:	07 d0       	rcall	.+14     	; 0x21a2 <__divmodsi4_neg2>
    2194:	0e 94 2b 11 	call	0x2256	; 0x2256 <__udivmodsi4>
    2198:	07 fc       	sbrc	r0, 7
    219a:	03 d0       	rcall	.+6      	; 0x21a2 <__divmodsi4_neg2>
    219c:	4e f4       	brtc	.+18     	; 0x21b0 <__divmodsi4_exit>
    219e:	0c 94 d9 10 	jmp	0x21b2	; 0x21b2 <__negsi2>

000021a2 <__divmodsi4_neg2>:
    21a2:	50 95       	com	r21
    21a4:	40 95       	com	r20
    21a6:	30 95       	com	r19
    21a8:	21 95       	neg	r18
    21aa:	3f 4f       	sbci	r19, 0xFF	; 255
    21ac:	4f 4f       	sbci	r20, 0xFF	; 255
    21ae:	5f 4f       	sbci	r21, 0xFF	; 255

000021b0 <__divmodsi4_exit>:
    21b0:	08 95       	ret

000021b2 <__negsi2>:
    21b2:	90 95       	com	r25
    21b4:	80 95       	com	r24
    21b6:	70 95       	com	r23
    21b8:	61 95       	neg	r22
    21ba:	7f 4f       	sbci	r23, 0xFF	; 255
    21bc:	8f 4f       	sbci	r24, 0xFF	; 255
    21be:	9f 4f       	sbci	r25, 0xFF	; 255
    21c0:	08 95       	ret

000021c2 <__muluhisi3>:
    21c2:	0e 94 d1 0b 	call	0x17a2	; 0x17a2 <__umulhisi3>
    21c6:	a5 9f       	mul	r26, r21
    21c8:	90 0d       	add	r25, r0
    21ca:	b4 9f       	mul	r27, r20
    21cc:	90 0d       	add	r25, r0
    21ce:	a4 9f       	mul	r26, r20
    21d0:	80 0d       	add	r24, r0
    21d2:	91 1d       	adc	r25, r1
    21d4:	11 24       	eor	r1, r1
    21d6:	08 95       	ret

000021d8 <__mulshisi3>:
    21d8:	b7 ff       	sbrs	r27, 7
    21da:	0c 94 e1 10 	jmp	0x21c2	; 0x21c2 <__muluhisi3>

000021de <__mulohisi3>:
    21de:	0e 94 e1 10 	call	0x21c2	; 0x21c2 <__muluhisi3>
    21e2:	82 1b       	sub	r24, r18
    21e4:	93 0b       	sbc	r25, r19
    21e6:	08 95       	ret

000021e8 <__prologue_saves__>:
    21e8:	2f 92       	push	r2
    21ea:	3f 92       	push	r3
    21ec:	4f 92       	push	r4
    21ee:	5f 92       	push	r5
    21f0:	6f 92       	push	r6
    21f2:	7f 92       	push	r7
    21f4:	8f 92       	push	r8
    21f6:	9f 92       	push	r9
    21f8:	af 92       	push	r10
    21fa:	bf 92       	push	r11
    21fc:	cf 92       	push	r12
    21fe:	df 92       	push	r13
    2200:	ef 92       	push	r14
    2202:	ff 92       	push	r15
    2204:	0f 93       	push	r16
    2206:	1f 93       	push	r17
    2208:	cf 93       	push	r28
    220a:	df 93       	push	r29
    220c:	cd b7       	in	r28, 0x3d	; 61
    220e:	de b7       	in	r29, 0x3e	; 62
    2210:	ca 1b       	sub	r28, r26
    2212:	db 0b       	sbc	r29, r27
    2214:	0f b6       	in	r0, 0x3f	; 63
    2216:	f8 94       	cli
    2218:	de bf       	out	0x3e, r29	; 62
    221a:	0f be       	out	0x3f, r0	; 63
    221c:	cd bf       	out	0x3d, r28	; 61
    221e:	09 94       	ijmp

00002220 <__epilogue_restores__>:
    2220:	2a 88       	ldd	r2, Y+18	; 0x12
    2222:	39 88       	ldd	r3, Y+17	; 0x11
    2224:	48 88       	ldd	r4, Y+16	; 0x10
    2226:	5f 84       	ldd	r5, Y+15	; 0x0f
    2228:	6e 84       	ldd	r6, Y+14	; 0x0e
    222a:	7d 84       	ldd	r7, Y+13	; 0x0d
    222c:	8c 84       	ldd	r8, Y+12	; 0x0c
    222e:	9b 84       	ldd	r9, Y+11	; 0x0b
    2230:	aa 84       	ldd	r10, Y+10	; 0x0a
    2232:	b9 84       	ldd	r11, Y+9	; 0x09
    2234:	c8 84       	ldd	r12, Y+8	; 0x08
    2236:	df 80       	ldd	r13, Y+7	; 0x07
    2238:	ee 80       	ldd	r14, Y+6	; 0x06
    223a:	fd 80       	ldd	r15, Y+5	; 0x05
    223c:	0c 81       	ldd	r16, Y+4	; 0x04
    223e:	1b 81       	ldd	r17, Y+3	; 0x03
    2240:	aa 81       	ldd	r26, Y+2	; 0x02
    2242:	b9 81       	ldd	r27, Y+1	; 0x01
    2244:	ce 0f       	add	r28, r30
    2246:	d1 1d       	adc	r29, r1
    2248:	0f b6       	in	r0, 0x3f	; 63
    224a:	f8 94       	cli
    224c:	de bf       	out	0x3e, r29	; 62
    224e:	0f be       	out	0x3f, r0	; 63
    2250:	cd bf       	out	0x3d, r28	; 61
    2252:	ed 01       	movw	r28, r26
    2254:	08 95       	ret

00002256 <__udivmodsi4>:
    2256:	a1 e2       	ldi	r26, 0x21	; 33
    2258:	1a 2e       	mov	r1, r26
    225a:	aa 1b       	sub	r26, r26
    225c:	bb 1b       	sub	r27, r27
    225e:	fd 01       	movw	r30, r26
    2260:	0d c0       	rjmp	.+26     	; 0x227c <__udivmodsi4_ep>

00002262 <__udivmodsi4_loop>:
    2262:	aa 1f       	adc	r26, r26
    2264:	bb 1f       	adc	r27, r27
    2266:	ee 1f       	adc	r30, r30
    2268:	ff 1f       	adc	r31, r31
    226a:	a2 17       	cp	r26, r18
    226c:	b3 07       	cpc	r27, r19
    226e:	e4 07       	cpc	r30, r20
    2270:	f5 07       	cpc	r31, r21
    2272:	20 f0       	brcs	.+8      	; 0x227c <__udivmodsi4_ep>
    2274:	a2 1b       	sub	r26, r18
    2276:	b3 0b       	sbc	r27, r19
    2278:	e4 0b       	sbc	r30, r20
    227a:	f5 0b       	sbc	r31, r21

0000227c <__udivmodsi4_ep>:
    227c:	66 1f       	adc	r22, r22
    227e:	77 1f       	adc	r23, r23
    2280:	88 1f       	adc	r24, r24
    2282:	99 1f       	adc	r25, r25
    2284:	1a 94       	dec	r1
    2286:	69 f7       	brne	.-38     	; 0x2262 <__udivmodsi4_loop>
    2288:	60 95       	com	r22
    228a:	70 95       	com	r23
    228c:	80 95       	com	r24
    228e:	90 95       	com	r25
    2290:	9b 01       	movw	r18, r22
    2292:	ac 01       	movw	r20, r24
    2294:	bd 01       	movw	r22, r26
    2296:	cf 01       	movw	r24, r30
    2298:	08 95       	ret

0000229a <_exit>:
    229a:	f8 94       	cli

0000229c <__stop_program>:
    229c:	ff cf       	rjmp	.-2      	; 0x229c <__stop_program>
